	.file	"trans.c"
	.text
	.globl	solve61times67
	.type	solve61times67, @function
solve61times67:
.LFB4:
	.cfi_startproc
	endbr64
	pushq	%rbp
	.cfi_def_cfa_offset 16
	.cfi_offset 6, -16
	movq	%rsp, %rbp
	.cfi_def_cfa_register 6
	movl	%edi, -20(%rbp)
	movl	%esi, -24(%rbp)
	movq	%rdx, -32(%rbp)
	movq	%rcx, -40(%rbp)
	movl	-20(%rbp), %eax
	cltq
	subq	$1, %rax
	movq	%rax, -16(%rbp)
	movl	-24(%rbp), %eax
	cltq
	subq	$1, %rax
	movq	%rax, -8(%rbp)
	nop
	popq	%rbp
	.cfi_def_cfa 7, 8
	ret
	.cfi_endproc
.LFE4:
	.size	solve61times67, .-solve61times67
	.globl	transpose_submit_desc
	.data
	.align 16
	.type	transpose_submit_desc, @object
	.size	transpose_submit_desc, 21
transpose_submit_desc:
	.string	"Transpose submission"
	.text
	.globl	transpose_submit
	.type	transpose_submit, @function
transpose_submit:
.LFB5:
	.cfi_startproc
	endbr64
	pushq	%rbp
	.cfi_def_cfa_offset 16
	.cfi_offset 6, -16
	movq	%rsp, %rbp
	.cfi_def_cfa_register 6
	subq	$1496, %rsp
	movl	%edi, -1588(%rbp)
	movl	%esi, -1592(%rbp)
	movq	%rdx, -1600(%rbp)
	movq	%rcx, -1608(%rbp)
	movl	-1588(%rbp), %eax
	cltq
	subq	$1, %rax
	movq	%rax, -656(%rbp)
	movl	-1592(%rbp), %eax
	cltq
	subq	$1, %rax
	movq	%rax, -648(%rbp)
	cmpl	$32, -1588(%rbp)
	jne	.L3
	cmpl	$32, -1592(%rbp)
	jne	.L3
	movl	-1588(%rbp), %eax
	movl	%eax, -1584(%rbp)
	movl	-1592(%rbp), %eax
	movl	%eax, -1580(%rbp)
	movq	-1600(%rbp), %rax
	movq	%rax, -640(%rbp)
	movq	-1608(%rbp), %rax
	movq	%rax, -632(%rbp)
	movl	-1584(%rbp), %eax
	cltq
	subq	$1, %rax
	movq	%rax, -624(%rbp)
	movl	-1580(%rbp), %eax
	cltq
	subq	$1, %rax
	movq	%rax, -616(%rbp)
	movl	-1584(%rbp), %eax
	movl	%eax, -1576(%rbp)
	movl	-1580(%rbp), %eax
	movl	%eax, -1572(%rbp)
	movq	-640(%rbp), %rax
	movq	%rax, -608(%rbp)
	movq	-632(%rbp), %rax
	movq	%rax, -600(%rbp)
	movl	$0, -1568(%rbp)
	movl	$8, -1564(%rbp)
	movl	$8, -1560(%rbp)
	movl	$0, -1556(%rbp)
	movl	$8, -1552(%rbp)
	movl	$8, -1548(%rbp)
	movl	-1576(%rbp), %eax
	movslq	%eax, %rdx
	subq	$1, %rdx
	movq	%rdx, -592(%rbp)
	movl	-1572(%rbp), %edx
	movslq	%edx, %rcx
	subq	$1, %rcx
	movq	%rcx, -584(%rbp)
	movl	$0, -1544(%rbp)
	jmp	.L4
.L7:
	movl	$0, -1540(%rbp)
	jmp	.L5
.L6:
	movl	-1568(%rbp), %esi
	movl	-1544(%rbp), %ecx
	addl	%esi, %ecx
	movslq	%ecx, %rsi
	movslq	%eax, %rcx
	imulq	%rsi, %rcx
	leaq	0(,%rcx,4), %rsi
	movq	-608(%rbp), %rcx
	leaq	(%rsi,%rcx), %r8
	movl	-1564(%rbp), %esi
	movl	-1540(%rbp), %ecx
	leal	(%rsi,%rcx), %r10d
	movl	-1560(%rbp), %esi
	movl	-1540(%rbp), %ecx
	addl	%esi, %ecx
	movslq	%ecx, %rsi
	movslq	%edx, %rcx
	imulq	%rsi, %rcx
	leaq	0(,%rcx,4), %rsi
	movq	-600(%rbp), %rcx
	leaq	(%rsi,%rcx), %rdi
	movl	-1568(%rbp), %esi
	movl	-1544(%rbp), %ecx
	leal	(%rsi,%rcx), %r9d
	movslq	%r10d, %rcx
	movl	(%r8,%rcx,4), %esi
	movslq	%r9d, %rcx
	movl	%esi, (%rdi,%rcx,4)
	addl	$1, -1540(%rbp)
.L5:
	movl	-1548(%rbp), %ecx
	cmpl	-1540(%rbp), %ecx
	jg	.L6
	addl	$1, -1544(%rbp)
.L4:
	movl	-1552(%rbp), %ecx
	cmpl	-1544(%rbp), %ecx
	jg	.L7
	nop
	movl	-1584(%rbp), %eax
	movl	%eax, -1536(%rbp)
	movl	-1580(%rbp), %eax
	movl	%eax, -1532(%rbp)
	movq	-640(%rbp), %rax
	movq	%rax, -576(%rbp)
	movq	-632(%rbp), %rax
	movq	%rax, -568(%rbp)
	movl	$0, -1528(%rbp)
	movl	$16, -1524(%rbp)
	movl	$16, -1520(%rbp)
	movl	$0, -1516(%rbp)
	movl	$8, -1512(%rbp)
	movl	$8, -1508(%rbp)
	movl	-1536(%rbp), %eax
	movslq	%eax, %rdx
	subq	$1, %rdx
	movq	%rdx, -560(%rbp)
	movl	-1532(%rbp), %edx
	movslq	%edx, %rcx
	subq	$1, %rcx
	movq	%rcx, -552(%rbp)
	movl	$0, -1504(%rbp)
	jmp	.L8
.L11:
	movl	$0, -1500(%rbp)
	jmp	.L9
.L10:
	movl	-1528(%rbp), %esi
	movl	-1504(%rbp), %ecx
	addl	%esi, %ecx
	movslq	%ecx, %rsi
	movslq	%eax, %rcx
	imulq	%rsi, %rcx
	leaq	0(,%rcx,4), %rsi
	movq	-576(%rbp), %rcx
	leaq	(%rsi,%rcx), %r8
	movl	-1524(%rbp), %esi
	movl	-1500(%rbp), %ecx
	leal	(%rsi,%rcx), %r10d
	movl	-1520(%rbp), %esi
	movl	-1500(%rbp), %ecx
	addl	%esi, %ecx
	movslq	%ecx, %rsi
	movslq	%edx, %rcx
	imulq	%rsi, %rcx
	leaq	0(,%rcx,4), %rsi
	movq	-568(%rbp), %rcx
	leaq	(%rsi,%rcx), %rdi
	movl	-1528(%rbp), %esi
	movl	-1504(%rbp), %ecx
	leal	(%rsi,%rcx), %r9d
	movslq	%r10d, %rcx
	movl	(%r8,%rcx,4), %esi
	movslq	%r9d, %rcx
	movl	%esi, (%rdi,%rcx,4)
	addl	$1, -1500(%rbp)
.L9:
	movl	-1508(%rbp), %ecx
	cmpl	-1500(%rbp), %ecx
	jg	.L10
	addl	$1, -1504(%rbp)
.L8:
	movl	-1512(%rbp), %ecx
	cmpl	-1504(%rbp), %ecx
	jg	.L11
	nop
	movl	-1584(%rbp), %eax
	movl	%eax, -1496(%rbp)
	movl	-1580(%rbp), %eax
	movl	%eax, -1492(%rbp)
	movq	-640(%rbp), %rax
	movq	%rax, -544(%rbp)
	movq	-632(%rbp), %rax
	movq	%rax, -536(%rbp)
	movl	$0, -1488(%rbp)
	movl	$24, -1484(%rbp)
	movl	$24, -1480(%rbp)
	movl	$0, -1476(%rbp)
	movl	$8, -1472(%rbp)
	movl	$8, -1468(%rbp)
	movl	-1496(%rbp), %eax
	movslq	%eax, %rdx
	subq	$1, %rdx
	movq	%rdx, -528(%rbp)
	movl	-1492(%rbp), %edx
	movslq	%edx, %rcx
	subq	$1, %rcx
	movq	%rcx, -520(%rbp)
	movl	$0, -1464(%rbp)
	jmp	.L12
.L15:
	movl	$0, -1460(%rbp)
	jmp	.L13
.L14:
	movl	-1488(%rbp), %esi
	movl	-1464(%rbp), %ecx
	addl	%esi, %ecx
	movslq	%ecx, %rsi
	movslq	%eax, %rcx
	imulq	%rsi, %rcx
	leaq	0(,%rcx,4), %rsi
	movq	-544(%rbp), %rcx
	leaq	(%rsi,%rcx), %r8
	movl	-1484(%rbp), %esi
	movl	-1460(%rbp), %ecx
	leal	(%rsi,%rcx), %r10d
	movl	-1480(%rbp), %esi
	movl	-1460(%rbp), %ecx
	addl	%esi, %ecx
	movslq	%ecx, %rsi
	movslq	%edx, %rcx
	imulq	%rsi, %rcx
	leaq	0(,%rcx,4), %rsi
	movq	-536(%rbp), %rcx
	leaq	(%rsi,%rcx), %rdi
	movl	-1488(%rbp), %esi
	movl	-1464(%rbp), %ecx
	leal	(%rsi,%rcx), %r9d
	movslq	%r10d, %rcx
	movl	(%r8,%rcx,4), %esi
	movslq	%r9d, %rcx
	movl	%esi, (%rdi,%rcx,4)
	addl	$1, -1460(%rbp)
.L13:
	movl	-1468(%rbp), %ecx
	cmpl	-1460(%rbp), %ecx
	jg	.L14
	addl	$1, -1464(%rbp)
.L12:
	movl	-1472(%rbp), %ecx
	cmpl	-1464(%rbp), %ecx
	jg	.L15
	nop
	movl	-1584(%rbp), %eax
	movl	%eax, -1456(%rbp)
	movl	-1580(%rbp), %eax
	movl	%eax, -1452(%rbp)
	movq	-640(%rbp), %rax
	movq	%rax, -512(%rbp)
	movq	-632(%rbp), %rax
	movq	%rax, -504(%rbp)
	movl	$8, -1448(%rbp)
	movl	$0, -1444(%rbp)
	movl	$0, -1440(%rbp)
	movl	$8, -1436(%rbp)
	movl	$8, -1432(%rbp)
	movl	$8, -1428(%rbp)
	movl	-1456(%rbp), %eax
	movslq	%eax, %rdx
	subq	$1, %rdx
	movq	%rdx, -496(%rbp)
	movl	-1452(%rbp), %edx
	movslq	%edx, %rcx
	subq	$1, %rcx
	movq	%rcx, -488(%rbp)
	movl	$0, -1424(%rbp)
	jmp	.L16
.L19:
	movl	$0, -1420(%rbp)
	jmp	.L17
.L18:
	movl	-1448(%rbp), %esi
	movl	-1424(%rbp), %ecx
	addl	%esi, %ecx
	movslq	%ecx, %rsi
	movslq	%eax, %rcx
	imulq	%rsi, %rcx
	leaq	0(,%rcx,4), %rsi
	movq	-512(%rbp), %rcx
	leaq	(%rsi,%rcx), %r8
	movl	-1444(%rbp), %esi
	movl	-1420(%rbp), %ecx
	leal	(%rsi,%rcx), %r10d
	movl	-1440(%rbp), %esi
	movl	-1420(%rbp), %ecx
	addl	%esi, %ecx
	movslq	%ecx, %rsi
	movslq	%edx, %rcx
	imulq	%rsi, %rcx
	leaq	0(,%rcx,4), %rsi
	movq	-504(%rbp), %rcx
	leaq	(%rsi,%rcx), %rdi
	movl	-1448(%rbp), %esi
	movl	-1424(%rbp), %ecx
	leal	(%rsi,%rcx), %r9d
	movslq	%r10d, %rcx
	movl	(%r8,%rcx,4), %esi
	movslq	%r9d, %rcx
	movl	%esi, (%rdi,%rcx,4)
	addl	$1, -1420(%rbp)
.L17:
	movl	-1428(%rbp), %ecx
	cmpl	-1420(%rbp), %ecx
	jg	.L18
	addl	$1, -1424(%rbp)
.L16:
	movl	-1432(%rbp), %ecx
	cmpl	-1424(%rbp), %ecx
	jg	.L19
	nop
	movl	-1584(%rbp), %eax
	movl	%eax, -1416(%rbp)
	movl	-1580(%rbp), %eax
	movl	%eax, -1412(%rbp)
	movq	-640(%rbp), %rax
	movq	%rax, -480(%rbp)
	movq	-632(%rbp), %rax
	movq	%rax, -472(%rbp)
	movl	$8, -1408(%rbp)
	movl	$16, -1404(%rbp)
	movl	$16, -1400(%rbp)
	movl	$8, -1396(%rbp)
	movl	$8, -1392(%rbp)
	movl	$8, -1388(%rbp)
	movl	-1416(%rbp), %eax
	movslq	%eax, %rdx
	subq	$1, %rdx
	movq	%rdx, -464(%rbp)
	movl	-1412(%rbp), %edx
	movslq	%edx, %rcx
	subq	$1, %rcx
	movq	%rcx, -456(%rbp)
	movl	$0, -1384(%rbp)
	jmp	.L20
.L23:
	movl	$0, -1380(%rbp)
	jmp	.L21
.L22:
	movl	-1408(%rbp), %esi
	movl	-1384(%rbp), %ecx
	addl	%esi, %ecx
	movslq	%ecx, %rsi
	movslq	%eax, %rcx
	imulq	%rsi, %rcx
	leaq	0(,%rcx,4), %rsi
	movq	-480(%rbp), %rcx
	leaq	(%rsi,%rcx), %r8
	movl	-1404(%rbp), %esi
	movl	-1380(%rbp), %ecx
	leal	(%rsi,%rcx), %r10d
	movl	-1400(%rbp), %esi
	movl	-1380(%rbp), %ecx
	addl	%esi, %ecx
	movslq	%ecx, %rsi
	movslq	%edx, %rcx
	imulq	%rsi, %rcx
	leaq	0(,%rcx,4), %rsi
	movq	-472(%rbp), %rcx
	leaq	(%rsi,%rcx), %rdi
	movl	-1408(%rbp), %esi
	movl	-1384(%rbp), %ecx
	leal	(%rsi,%rcx), %r9d
	movslq	%r10d, %rcx
	movl	(%r8,%rcx,4), %esi
	movslq	%r9d, %rcx
	movl	%esi, (%rdi,%rcx,4)
	addl	$1, -1380(%rbp)
.L21:
	movl	-1388(%rbp), %ecx
	cmpl	-1380(%rbp), %ecx
	jg	.L22
	addl	$1, -1384(%rbp)
.L20:
	movl	-1392(%rbp), %ecx
	cmpl	-1384(%rbp), %ecx
	jg	.L23
	nop
	movl	-1584(%rbp), %eax
	movl	%eax, -1376(%rbp)
	movl	-1580(%rbp), %eax
	movl	%eax, -1372(%rbp)
	movq	-640(%rbp), %rax
	movq	%rax, -448(%rbp)
	movq	-632(%rbp), %rax
	movq	%rax, -440(%rbp)
	movl	$8, -1368(%rbp)
	movl	$24, -1364(%rbp)
	movl	$24, -1360(%rbp)
	movl	$8, -1356(%rbp)
	movl	$8, -1352(%rbp)
	movl	$8, -1348(%rbp)
	movl	-1376(%rbp), %eax
	movslq	%eax, %rdx
	subq	$1, %rdx
	movq	%rdx, -432(%rbp)
	movl	-1372(%rbp), %edx
	movslq	%edx, %rcx
	subq	$1, %rcx
	movq	%rcx, -424(%rbp)
	movl	$0, -1344(%rbp)
	jmp	.L24
.L27:
	movl	$0, -1340(%rbp)
	jmp	.L25
.L26:
	movl	-1368(%rbp), %esi
	movl	-1344(%rbp), %ecx
	addl	%esi, %ecx
	movslq	%ecx, %rsi
	movslq	%eax, %rcx
	imulq	%rsi, %rcx
	leaq	0(,%rcx,4), %rsi
	movq	-448(%rbp), %rcx
	leaq	(%rsi,%rcx), %r8
	movl	-1364(%rbp), %esi
	movl	-1340(%rbp), %ecx
	leal	(%rsi,%rcx), %r10d
	movl	-1360(%rbp), %esi
	movl	-1340(%rbp), %ecx
	addl	%esi, %ecx
	movslq	%ecx, %rsi
	movslq	%edx, %rcx
	imulq	%rsi, %rcx
	leaq	0(,%rcx,4), %rsi
	movq	-440(%rbp), %rcx
	leaq	(%rsi,%rcx), %rdi
	movl	-1368(%rbp), %esi
	movl	-1344(%rbp), %ecx
	leal	(%rsi,%rcx), %r9d
	movslq	%r10d, %rcx
	movl	(%r8,%rcx,4), %esi
	movslq	%r9d, %rcx
	movl	%esi, (%rdi,%rcx,4)
	addl	$1, -1340(%rbp)
.L25:
	movl	-1348(%rbp), %ecx
	cmpl	-1340(%rbp), %ecx
	jg	.L26
	addl	$1, -1344(%rbp)
.L24:
	movl	-1352(%rbp), %ecx
	cmpl	-1344(%rbp), %ecx
	jg	.L27
	nop
	movl	-1584(%rbp), %eax
	movl	%eax, -1336(%rbp)
	movl	-1580(%rbp), %eax
	movl	%eax, -1332(%rbp)
	movq	-640(%rbp), %rax
	movq	%rax, -416(%rbp)
	movq	-632(%rbp), %rax
	movq	%rax, -408(%rbp)
	movl	$16, -1328(%rbp)
	movl	$0, -1324(%rbp)
	movl	$0, -1320(%rbp)
	movl	$16, -1316(%rbp)
	movl	$8, -1312(%rbp)
	movl	$8, -1308(%rbp)
	movl	-1336(%rbp), %eax
	movslq	%eax, %rdx
	subq	$1, %rdx
	movq	%rdx, -400(%rbp)
	movl	-1332(%rbp), %edx
	movslq	%edx, %rcx
	subq	$1, %rcx
	movq	%rcx, -392(%rbp)
	movl	$0, -1304(%rbp)
	jmp	.L28
.L31:
	movl	$0, -1300(%rbp)
	jmp	.L29
.L30:
	movl	-1328(%rbp), %esi
	movl	-1304(%rbp), %ecx
	addl	%esi, %ecx
	movslq	%ecx, %rsi
	movslq	%eax, %rcx
	imulq	%rsi, %rcx
	leaq	0(,%rcx,4), %rsi
	movq	-416(%rbp), %rcx
	leaq	(%rsi,%rcx), %r8
	movl	-1324(%rbp), %esi
	movl	-1300(%rbp), %ecx
	leal	(%rsi,%rcx), %r10d
	movl	-1320(%rbp), %esi
	movl	-1300(%rbp), %ecx
	addl	%esi, %ecx
	movslq	%ecx, %rsi
	movslq	%edx, %rcx
	imulq	%rsi, %rcx
	leaq	0(,%rcx,4), %rsi
	movq	-408(%rbp), %rcx
	leaq	(%rsi,%rcx), %rdi
	movl	-1328(%rbp), %esi
	movl	-1304(%rbp), %ecx
	leal	(%rsi,%rcx), %r9d
	movslq	%r10d, %rcx
	movl	(%r8,%rcx,4), %esi
	movslq	%r9d, %rcx
	movl	%esi, (%rdi,%rcx,4)
	addl	$1, -1300(%rbp)
.L29:
	movl	-1308(%rbp), %ecx
	cmpl	-1300(%rbp), %ecx
	jg	.L30
	addl	$1, -1304(%rbp)
.L28:
	movl	-1312(%rbp), %ecx
	cmpl	-1304(%rbp), %ecx
	jg	.L31
	nop
	movl	-1584(%rbp), %eax
	movl	%eax, -1296(%rbp)
	movl	-1580(%rbp), %eax
	movl	%eax, -1292(%rbp)
	movq	-640(%rbp), %rax
	movq	%rax, -384(%rbp)
	movq	-632(%rbp), %rax
	movq	%rax, -376(%rbp)
	movl	$16, -1288(%rbp)
	movl	$8, -1284(%rbp)
	movl	$8, -1280(%rbp)
	movl	$16, -1276(%rbp)
	movl	$8, -1272(%rbp)
	movl	$8, -1268(%rbp)
	movl	-1296(%rbp), %eax
	movslq	%eax, %rdx
	subq	$1, %rdx
	movq	%rdx, -368(%rbp)
	movl	-1292(%rbp), %edx
	movslq	%edx, %rcx
	subq	$1, %rcx
	movq	%rcx, -360(%rbp)
	movl	$0, -1264(%rbp)
	jmp	.L32
.L35:
	movl	$0, -1260(%rbp)
	jmp	.L33
.L34:
	movl	-1288(%rbp), %esi
	movl	-1264(%rbp), %ecx
	addl	%esi, %ecx
	movslq	%ecx, %rsi
	movslq	%eax, %rcx
	imulq	%rsi, %rcx
	leaq	0(,%rcx,4), %rsi
	movq	-384(%rbp), %rcx
	leaq	(%rsi,%rcx), %r8
	movl	-1284(%rbp), %esi
	movl	-1260(%rbp), %ecx
	leal	(%rsi,%rcx), %r10d
	movl	-1280(%rbp), %esi
	movl	-1260(%rbp), %ecx
	addl	%esi, %ecx
	movslq	%ecx, %rsi
	movslq	%edx, %rcx
	imulq	%rsi, %rcx
	leaq	0(,%rcx,4), %rsi
	movq	-376(%rbp), %rcx
	leaq	(%rsi,%rcx), %rdi
	movl	-1288(%rbp), %esi
	movl	-1264(%rbp), %ecx
	leal	(%rsi,%rcx), %r9d
	movslq	%r10d, %rcx
	movl	(%r8,%rcx,4), %esi
	movslq	%r9d, %rcx
	movl	%esi, (%rdi,%rcx,4)
	addl	$1, -1260(%rbp)
.L33:
	movl	-1268(%rbp), %ecx
	cmpl	-1260(%rbp), %ecx
	jg	.L34
	addl	$1, -1264(%rbp)
.L32:
	movl	-1272(%rbp), %ecx
	cmpl	-1264(%rbp), %ecx
	jg	.L35
	nop
	movl	-1584(%rbp), %eax
	movl	%eax, -1256(%rbp)
	movl	-1580(%rbp), %eax
	movl	%eax, -1252(%rbp)
	movq	-640(%rbp), %rax
	movq	%rax, -352(%rbp)
	movq	-632(%rbp), %rax
	movq	%rax, -344(%rbp)
	movl	$16, -1248(%rbp)
	movl	$24, -1244(%rbp)
	movl	$24, -1240(%rbp)
	movl	$16, -1236(%rbp)
	movl	$8, -1232(%rbp)
	movl	$8, -1228(%rbp)
	movl	-1256(%rbp), %eax
	movslq	%eax, %rdx
	subq	$1, %rdx
	movq	%rdx, -336(%rbp)
	movl	-1252(%rbp), %edx
	movslq	%edx, %rcx
	subq	$1, %rcx
	movq	%rcx, -328(%rbp)
	movl	$0, -1224(%rbp)
	jmp	.L36
.L39:
	movl	$0, -1220(%rbp)
	jmp	.L37
.L38:
	movl	-1248(%rbp), %esi
	movl	-1224(%rbp), %ecx
	addl	%esi, %ecx
	movslq	%ecx, %rsi
	movslq	%eax, %rcx
	imulq	%rsi, %rcx
	leaq	0(,%rcx,4), %rsi
	movq	-352(%rbp), %rcx
	leaq	(%rsi,%rcx), %r8
	movl	-1244(%rbp), %esi
	movl	-1220(%rbp), %ecx
	leal	(%rsi,%rcx), %r10d
	movl	-1240(%rbp), %esi
	movl	-1220(%rbp), %ecx
	addl	%esi, %ecx
	movslq	%ecx, %rsi
	movslq	%edx, %rcx
	imulq	%rsi, %rcx
	leaq	0(,%rcx,4), %rsi
	movq	-344(%rbp), %rcx
	leaq	(%rsi,%rcx), %rdi
	movl	-1248(%rbp), %esi
	movl	-1224(%rbp), %ecx
	leal	(%rsi,%rcx), %r9d
	movslq	%r10d, %rcx
	movl	(%r8,%rcx,4), %esi
	movslq	%r9d, %rcx
	movl	%esi, (%rdi,%rcx,4)
	addl	$1, -1220(%rbp)
.L37:
	movl	-1228(%rbp), %ecx
	cmpl	-1220(%rbp), %ecx
	jg	.L38
	addl	$1, -1224(%rbp)
.L36:
	movl	-1232(%rbp), %ecx
	cmpl	-1224(%rbp), %ecx
	jg	.L39
	nop
	movl	-1584(%rbp), %eax
	movl	%eax, -1216(%rbp)
	movl	-1580(%rbp), %eax
	movl	%eax, -1212(%rbp)
	movq	-640(%rbp), %rax
	movq	%rax, -320(%rbp)
	movq	-632(%rbp), %rax
	movq	%rax, -312(%rbp)
	movl	$24, -1208(%rbp)
	movl	$0, -1204(%rbp)
	movl	$0, -1200(%rbp)
	movl	$24, -1196(%rbp)
	movl	$8, -1192(%rbp)
	movl	$8, -1188(%rbp)
	movl	-1216(%rbp), %eax
	movslq	%eax, %rdx
	subq	$1, %rdx
	movq	%rdx, -304(%rbp)
	movl	-1212(%rbp), %edx
	movslq	%edx, %rcx
	subq	$1, %rcx
	movq	%rcx, -296(%rbp)
	movl	$0, -1184(%rbp)
	jmp	.L40
.L43:
	movl	$0, -1180(%rbp)
	jmp	.L41
.L42:
	movl	-1208(%rbp), %esi
	movl	-1184(%rbp), %ecx
	addl	%esi, %ecx
	movslq	%ecx, %rsi
	movslq	%eax, %rcx
	imulq	%rsi, %rcx
	leaq	0(,%rcx,4), %rsi
	movq	-320(%rbp), %rcx
	leaq	(%rsi,%rcx), %r8
	movl	-1204(%rbp), %esi
	movl	-1180(%rbp), %ecx
	leal	(%rsi,%rcx), %r10d
	movl	-1200(%rbp), %esi
	movl	-1180(%rbp), %ecx
	addl	%esi, %ecx
	movslq	%ecx, %rsi
	movslq	%edx, %rcx
	imulq	%rsi, %rcx
	leaq	0(,%rcx,4), %rsi
	movq	-312(%rbp), %rcx
	leaq	(%rsi,%rcx), %rdi
	movl	-1208(%rbp), %esi
	movl	-1184(%rbp), %ecx
	leal	(%rsi,%rcx), %r9d
	movslq	%r10d, %rcx
	movl	(%r8,%rcx,4), %esi
	movslq	%r9d, %rcx
	movl	%esi, (%rdi,%rcx,4)
	addl	$1, -1180(%rbp)
.L41:
	movl	-1188(%rbp), %ecx
	cmpl	-1180(%rbp), %ecx
	jg	.L42
	addl	$1, -1184(%rbp)
.L40:
	movl	-1192(%rbp), %ecx
	cmpl	-1184(%rbp), %ecx
	jg	.L43
	nop
	movl	-1584(%rbp), %eax
	movl	%eax, -1176(%rbp)
	movl	-1580(%rbp), %eax
	movl	%eax, -1172(%rbp)
	movq	-640(%rbp), %rax
	movq	%rax, -288(%rbp)
	movq	-632(%rbp), %rax
	movq	%rax, -280(%rbp)
	movl	$24, -1168(%rbp)
	movl	$8, -1164(%rbp)
	movl	$8, -1160(%rbp)
	movl	$24, -1156(%rbp)
	movl	$8, -1152(%rbp)
	movl	$8, -1148(%rbp)
	movl	-1176(%rbp), %eax
	movslq	%eax, %rdx
	subq	$1, %rdx
	movq	%rdx, -272(%rbp)
	movl	-1172(%rbp), %edx
	movslq	%edx, %rcx
	subq	$1, %rcx
	movq	%rcx, -264(%rbp)
	movl	$0, -1144(%rbp)
	jmp	.L44
.L47:
	movl	$0, -1140(%rbp)
	jmp	.L45
.L46:
	movl	-1168(%rbp), %esi
	movl	-1144(%rbp), %ecx
	addl	%esi, %ecx
	movslq	%ecx, %rsi
	movslq	%eax, %rcx
	imulq	%rsi, %rcx
	leaq	0(,%rcx,4), %rsi
	movq	-288(%rbp), %rcx
	leaq	(%rsi,%rcx), %r8
	movl	-1164(%rbp), %esi
	movl	-1140(%rbp), %ecx
	leal	(%rsi,%rcx), %r10d
	movl	-1160(%rbp), %esi
	movl	-1140(%rbp), %ecx
	addl	%esi, %ecx
	movslq	%ecx, %rsi
	movslq	%edx, %rcx
	imulq	%rsi, %rcx
	leaq	0(,%rcx,4), %rsi
	movq	-280(%rbp), %rcx
	leaq	(%rsi,%rcx), %rdi
	movl	-1168(%rbp), %esi
	movl	-1144(%rbp), %ecx
	leal	(%rsi,%rcx), %r9d
	movslq	%r10d, %rcx
	movl	(%r8,%rcx,4), %esi
	movslq	%r9d, %rcx
	movl	%esi, (%rdi,%rcx,4)
	addl	$1, -1140(%rbp)
.L45:
	movl	-1148(%rbp), %ecx
	cmpl	-1140(%rbp), %ecx
	jg	.L46
	addl	$1, -1144(%rbp)
.L44:
	movl	-1152(%rbp), %ecx
	cmpl	-1144(%rbp), %ecx
	jg	.L47
	nop
	movl	-1584(%rbp), %eax
	movl	%eax, -1136(%rbp)
	movl	-1580(%rbp), %eax
	movl	%eax, -1132(%rbp)
	movq	-640(%rbp), %rax
	movq	%rax, -256(%rbp)
	movq	-632(%rbp), %rax
	movq	%rax, -248(%rbp)
	movl	$24, -1128(%rbp)
	movl	$16, -1124(%rbp)
	movl	$16, -1120(%rbp)
	movl	$24, -1116(%rbp)
	movl	$8, -1112(%rbp)
	movl	$8, -1108(%rbp)
	movl	-1136(%rbp), %eax
	movslq	%eax, %rdx
	subq	$1, %rdx
	movq	%rdx, -240(%rbp)
	movl	-1132(%rbp), %edx
	movslq	%edx, %rcx
	subq	$1, %rcx
	movq	%rcx, -232(%rbp)
	movl	$0, -1104(%rbp)
	jmp	.L48
.L51:
	movl	$0, -1100(%rbp)
	jmp	.L49
.L50:
	movl	-1128(%rbp), %esi
	movl	-1104(%rbp), %ecx
	addl	%esi, %ecx
	movslq	%ecx, %rsi
	movslq	%eax, %rcx
	imulq	%rsi, %rcx
	leaq	0(,%rcx,4), %rsi
	movq	-256(%rbp), %rcx
	leaq	(%rsi,%rcx), %r8
	movl	-1124(%rbp), %esi
	movl	-1100(%rbp), %ecx
	leal	(%rsi,%rcx), %r10d
	movl	-1120(%rbp), %esi
	movl	-1100(%rbp), %ecx
	addl	%esi, %ecx
	movslq	%ecx, %rsi
	movslq	%edx, %rcx
	imulq	%rsi, %rcx
	leaq	0(,%rcx,4), %rsi
	movq	-248(%rbp), %rcx
	leaq	(%rsi,%rcx), %rdi
	movl	-1128(%rbp), %esi
	movl	-1104(%rbp), %ecx
	leal	(%rsi,%rcx), %r9d
	movslq	%r10d, %rcx
	movl	(%r8,%rcx,4), %esi
	movslq	%r9d, %rcx
	movl	%esi, (%rdi,%rcx,4)
	addl	$1, -1100(%rbp)
.L49:
	movl	-1108(%rbp), %ecx
	cmpl	-1100(%rbp), %ecx
	jg	.L50
	addl	$1, -1104(%rbp)
.L48:
	movl	-1112(%rbp), %ecx
	cmpl	-1104(%rbp), %ecx
	jg	.L51
	nop
	movl	-1584(%rbp), %eax
	movl	%eax, -1096(%rbp)
	movl	-1580(%rbp), %eax
	movl	%eax, -1092(%rbp)
	movq	-640(%rbp), %rax
	movq	%rax, -224(%rbp)
	movq	-632(%rbp), %rax
	movq	%rax, -216(%rbp)
	movl	$0, -1088(%rbp)
	movl	-1096(%rbp), %edx
	movslq	%edx, %rax
	subq	$1, %rax
	movq	%rax, -208(%rbp)
	movl	-1092(%rbp), %eax
	movslq	%eax, %rcx
	subq	$1, %rcx
	movq	%rcx, -200(%rbp)
	movl	$0, -1084(%rbp)
	jmp	.L52
.L55:
	movl	$0, -1080(%rbp)
	jmp	.L53
.L54:
	movl	-1088(%rbp), %esi
	movl	-1080(%rbp), %ecx
	addl	%esi, %ecx
	addl	$4, %ecx
	movslq	%ecx, %rsi
	movslq	%edx, %rcx
	imulq	%rsi, %rcx
	leaq	0(,%rcx,4), %rsi
	movq	-224(%rbp), %rcx
	leaq	(%rsi,%rcx), %r8
	movl	-1088(%rbp), %esi
	movl	-1084(%rbp), %ecx
	leal	(%rsi,%rcx), %r10d
	movl	-1088(%rbp), %esi
	movl	-1084(%rbp), %ecx
	addl	%esi, %ecx
	movslq	%ecx, %rsi
	movslq	%eax, %rcx
	imulq	%rsi, %rcx
	leaq	0(,%rcx,4), %rsi
	movq	-216(%rbp), %rcx
	leaq	(%rsi,%rcx), %rdi
	movl	-1088(%rbp), %esi
	movl	-1080(%rbp), %ecx
	addl	%esi, %ecx
	leal	4(%rcx), %r9d
	movslq	%r10d, %rcx
	movl	(%r8,%rcx,4), %esi
	movslq	%r9d, %rcx
	movl	%esi, (%rdi,%rcx,4)
	addl	$1, -1080(%rbp)
.L53:
	cmpl	$3, -1080(%rbp)
	jle	.L54
	addl	$1, -1084(%rbp)
.L52:
	cmpl	$3, -1084(%rbp)
	jle	.L55
	movl	-1088(%rbp), %ecx
	addl	$4, %ecx
	movslq	%ecx, %rsi
	movslq	%edx, %rcx
	imulq	%rsi, %rcx
	leaq	0(,%rcx,4), %rsi
	movq	-224(%rbp), %rcx
	addq	%rcx, %rsi
	movl	-1088(%rbp), %ecx
	addl	$4, %ecx
	movslq	%ecx, %rcx
	movl	(%rsi,%rcx,4), %ecx
	movl	%ecx, -1076(%rbp)
	movl	-1088(%rbp), %ecx
	addl	$4, %ecx
	movslq	%ecx, %rsi
	movslq	%edx, %rcx
	imulq	%rsi, %rcx
	leaq	0(,%rcx,4), %rsi
	movq	-224(%rbp), %rcx
	addq	%rcx, %rsi
	movl	-1088(%rbp), %ecx
	addl	$5, %ecx
	movslq	%ecx, %rcx
	movl	(%rsi,%rcx,4), %ecx
	movl	%ecx, -1072(%rbp)
	movl	-1088(%rbp), %ecx
	addl	$4, %ecx
	movslq	%ecx, %rsi
	movslq	%edx, %rcx
	imulq	%rsi, %rcx
	leaq	0(,%rcx,4), %rsi
	movq	-224(%rbp), %rcx
	addq	%rcx, %rsi
	movl	-1088(%rbp), %ecx
	addl	$6, %ecx
	movslq	%ecx, %rcx
	movl	(%rsi,%rcx,4), %ecx
	movl	%ecx, -1068(%rbp)
	movl	-1088(%rbp), %ecx
	addl	$4, %ecx
	movslq	%ecx, %rsi
	movslq	%edx, %rcx
	imulq	%rsi, %rcx
	leaq	0(,%rcx,4), %rsi
	movq	-224(%rbp), %rcx
	addq	%rcx, %rsi
	movl	-1088(%rbp), %ecx
	addl	$7, %ecx
	movslq	%ecx, %rcx
	movl	(%rsi,%rcx,4), %ecx
	movl	%ecx, -1064(%rbp)
	movl	-1088(%rbp), %ecx
	addl	$5, %ecx
	movslq	%ecx, %rsi
	movslq	%edx, %rcx
	imulq	%rsi, %rcx
	leaq	0(,%rcx,4), %rsi
	movq	-224(%rbp), %rcx
	addq	%rcx, %rsi
	movl	-1088(%rbp), %ecx
	addl	$4, %ecx
	movslq	%ecx, %rcx
	movl	(%rsi,%rcx,4), %ecx
	movl	%ecx, -1060(%rbp)
	movl	-1088(%rbp), %ecx
	addl	$5, %ecx
	movslq	%ecx, %rsi
	movslq	%edx, %rcx
	imulq	%rsi, %rcx
	leaq	0(,%rcx,4), %rsi
	movq	-224(%rbp), %rcx
	addq	%rcx, %rsi
	movl	-1088(%rbp), %ecx
	addl	$5, %ecx
	movslq	%ecx, %rcx
	movl	(%rsi,%rcx,4), %ecx
	movl	%ecx, -1056(%rbp)
	movl	-1088(%rbp), %ecx
	addl	$5, %ecx
	movslq	%ecx, %rsi
	movslq	%edx, %rcx
	imulq	%rsi, %rcx
	leaq	0(,%rcx,4), %rsi
	movq	-224(%rbp), %rcx
	addq	%rcx, %rsi
	movl	-1088(%rbp), %ecx
	addl	$6, %ecx
	movslq	%ecx, %rcx
	movl	(%rsi,%rcx,4), %ecx
	movl	%ecx, -1052(%rbp)
	movl	-1088(%rbp), %ecx
	addl	$5, %ecx
	movslq	%ecx, %rsi
	movslq	%edx, %rcx
	imulq	%rsi, %rcx
	leaq	0(,%rcx,4), %rsi
	movq	-224(%rbp), %rcx
	addq	%rcx, %rsi
	movl	-1088(%rbp), %ecx
	addl	$7, %ecx
	movslq	%ecx, %rcx
	movl	(%rsi,%rcx,4), %ecx
	movl	%ecx, -1048(%rbp)
	movl	-1088(%rbp), %ecx
	addl	$6, %ecx
	movslq	%ecx, %rsi
	movslq	%edx, %rcx
	imulq	%rsi, %rcx
	leaq	0(,%rcx,4), %rsi
	movq	-224(%rbp), %rcx
	addq	%rcx, %rsi
	movl	-1088(%rbp), %ecx
	addl	$4, %ecx
	movslq	%ecx, %rcx
	movl	(%rsi,%rcx,4), %ecx
	movl	%ecx, -1044(%rbp)
	movl	-1088(%rbp), %ecx
	addl	$6, %ecx
	movslq	%ecx, %rsi
	movslq	%edx, %rcx
	imulq	%rsi, %rcx
	leaq	0(,%rcx,4), %rsi
	movq	-224(%rbp), %rcx
	addq	%rcx, %rsi
	movl	-1088(%rbp), %ecx
	addl	$5, %ecx
	movslq	%ecx, %rcx
	movl	(%rsi,%rcx,4), %ecx
	movl	%ecx, -1040(%rbp)
	movl	-1088(%rbp), %ecx
	addl	$6, %ecx
	movslq	%ecx, %rsi
	movslq	%edx, %rcx
	imulq	%rsi, %rcx
	leaq	0(,%rcx,4), %rsi
	movq	-224(%rbp), %rcx
	addq	%rcx, %rsi
	movl	-1088(%rbp), %ecx
	addl	$6, %ecx
	movslq	%ecx, %rcx
	movl	(%rsi,%rcx,4), %ecx
	movl	%ecx, -1036(%rbp)
	movl	-1088(%rbp), %ecx
	addl	$6, %ecx
	movslq	%ecx, %rsi
	movslq	%edx, %rcx
	imulq	%rsi, %rcx
	leaq	0(,%rcx,4), %rsi
	movq	-224(%rbp), %rcx
	addq	%rcx, %rsi
	movl	-1088(%rbp), %ecx
	addl	$7, %ecx
	movslq	%ecx, %rcx
	movl	(%rsi,%rcx,4), %ecx
	movl	%ecx, -1032(%rbp)
	movl	-1088(%rbp), %ecx
	addl	$4, %ecx
	movslq	%ecx, %rsi
	movslq	%eax, %rcx
	imulq	%rsi, %rcx
	leaq	0(,%rcx,4), %rsi
	movq	-216(%rbp), %rcx
	leaq	(%rsi,%rcx), %rdi
	movl	-1088(%rbp), %ecx
	addl	$4, %ecx
	movslq	%ecx, %rcx
	movl	-1076(%rbp), %esi
	movl	%esi, (%rdi,%rcx,4)
	movl	-1088(%rbp), %ecx
	addl	$5, %ecx
	movslq	%ecx, %rsi
	movslq	%eax, %rcx
	imulq	%rsi, %rcx
	leaq	0(,%rcx,4), %rsi
	movq	-216(%rbp), %rcx
	leaq	(%rsi,%rcx), %rdi
	movl	-1088(%rbp), %ecx
	addl	$4, %ecx
	movslq	%ecx, %rcx
	movl	-1072(%rbp), %esi
	movl	%esi, (%rdi,%rcx,4)
	movl	-1088(%rbp), %ecx
	addl	$6, %ecx
	movslq	%ecx, %rsi
	movslq	%eax, %rcx
	imulq	%rsi, %rcx
	leaq	0(,%rcx,4), %rsi
	movq	-216(%rbp), %rcx
	leaq	(%rsi,%rcx), %rdi
	movl	-1088(%rbp), %ecx
	addl	$4, %ecx
	movslq	%ecx, %rcx
	movl	-1068(%rbp), %esi
	movl	%esi, (%rdi,%rcx,4)
	movl	-1088(%rbp), %ecx
	addl	$4, %ecx
	movslq	%ecx, %rsi
	movslq	%eax, %rcx
	imulq	%rsi, %rcx
	leaq	0(,%rcx,4), %rsi
	movq	-216(%rbp), %rcx
	leaq	(%rsi,%rcx), %rdi
	movl	-1088(%rbp), %ecx
	addl	$5, %ecx
	movslq	%ecx, %rcx
	movl	-1060(%rbp), %esi
	movl	%esi, (%rdi,%rcx,4)
	movl	-1088(%rbp), %ecx
	addl	$5, %ecx
	movslq	%ecx, %rsi
	movslq	%eax, %rcx
	imulq	%rsi, %rcx
	leaq	0(,%rcx,4), %rsi
	movq	-216(%rbp), %rcx
	leaq	(%rsi,%rcx), %rdi
	movl	-1088(%rbp), %ecx
	addl	$5, %ecx
	movslq	%ecx, %rcx
	movl	-1056(%rbp), %esi
	movl	%esi, (%rdi,%rcx,4)
	movl	-1088(%rbp), %ecx
	addl	$6, %ecx
	movslq	%ecx, %rsi
	movslq	%eax, %rcx
	imulq	%rsi, %rcx
	leaq	0(,%rcx,4), %rsi
	movq	-216(%rbp), %rcx
	leaq	(%rsi,%rcx), %rdi
	movl	-1088(%rbp), %ecx
	addl	$5, %ecx
	movslq	%ecx, %rcx
	movl	-1052(%rbp), %esi
	movl	%esi, (%rdi,%rcx,4)
	movl	-1088(%rbp), %ecx
	addl	$4, %ecx
	movslq	%ecx, %rsi
	movslq	%eax, %rcx
	imulq	%rsi, %rcx
	leaq	0(,%rcx,4), %rsi
	movq	-216(%rbp), %rcx
	leaq	(%rsi,%rcx), %rdi
	movl	-1088(%rbp), %ecx
	addl	$6, %ecx
	movslq	%ecx, %rcx
	movl	-1044(%rbp), %esi
	movl	%esi, (%rdi,%rcx,4)
	movl	-1088(%rbp), %ecx
	addl	$5, %ecx
	movslq	%ecx, %rsi
	movslq	%eax, %rcx
	imulq	%rsi, %rcx
	leaq	0(,%rcx,4), %rsi
	movq	-216(%rbp), %rcx
	leaq	(%rsi,%rcx), %rdi
	movl	-1088(%rbp), %ecx
	addl	$6, %ecx
	movslq	%ecx, %rcx
	movl	-1040(%rbp), %esi
	movl	%esi, (%rdi,%rcx,4)
	movl	-1088(%rbp), %ecx
	addl	$6, %ecx
	movslq	%ecx, %rsi
	movslq	%eax, %rcx
	imulq	%rsi, %rcx
	leaq	0(,%rcx,4), %rsi
	movq	-216(%rbp), %rcx
	leaq	(%rsi,%rcx), %rdi
	movl	-1088(%rbp), %ecx
	addl	$6, %ecx
	movslq	%ecx, %rcx
	movl	-1036(%rbp), %esi
	movl	%esi, (%rdi,%rcx,4)
	movl	-1088(%rbp), %ecx
	addl	$7, %ecx
	movslq	%ecx, %rsi
	movslq	%edx, %rcx
	imulq	%rsi, %rcx
	leaq	0(,%rcx,4), %rsi
	movq	-224(%rbp), %rcx
	addq	%rcx, %rsi
	movl	-1088(%rbp), %ecx
	addl	$4, %ecx
	movslq	%ecx, %rcx
	movl	(%rsi,%rcx,4), %ecx
	movl	%ecx, -1076(%rbp)
	movl	-1088(%rbp), %ecx
	addl	$7, %ecx
	movslq	%ecx, %rsi
	movslq	%edx, %rcx
	imulq	%rsi, %rcx
	leaq	0(,%rcx,4), %rsi
	movq	-224(%rbp), %rcx
	addq	%rcx, %rsi
	movl	-1088(%rbp), %ecx
	addl	$5, %ecx
	movslq	%ecx, %rcx
	movl	(%rsi,%rcx,4), %ecx
	movl	%ecx, -1072(%rbp)
	movl	-1088(%rbp), %ecx
	addl	$7, %ecx
	movslq	%ecx, %rsi
	movslq	%edx, %rcx
	imulq	%rsi, %rcx
	leaq	0(,%rcx,4), %rsi
	movq	-224(%rbp), %rcx
	addq	%rcx, %rsi
	movl	-1088(%rbp), %ecx
	addl	$6, %ecx
	movslq	%ecx, %rcx
	movl	(%rsi,%rcx,4), %ecx
	movl	%ecx, -1068(%rbp)
	movl	-1088(%rbp), %ecx
	addl	$7, %ecx
	movslq	%ecx, %rsi
	movslq	%edx, %rcx
	imulq	%rsi, %rcx
	leaq	0(,%rcx,4), %rsi
	movq	-224(%rbp), %rcx
	addq	%rcx, %rsi
	movl	-1088(%rbp), %ecx
	addl	$7, %ecx
	movslq	%ecx, %rcx
	movl	(%rsi,%rcx,4), %ecx
	movl	%ecx, -1060(%rbp)
	movl	-1088(%rbp), %ecx
	addl	$7, %ecx
	movslq	%ecx, %rsi
	movslq	%eax, %rcx
	imulq	%rsi, %rcx
	leaq	0(,%rcx,4), %rsi
	movq	-216(%rbp), %rcx
	leaq	(%rsi,%rcx), %rdi
	movl	-1088(%rbp), %ecx
	addl	$4, %ecx
	movslq	%ecx, %rcx
	movl	-1064(%rbp), %esi
	movl	%esi, (%rdi,%rcx,4)
	movl	-1088(%rbp), %ecx
	addl	$7, %ecx
	movslq	%ecx, %rsi
	movslq	%eax, %rcx
	imulq	%rsi, %rcx
	leaq	0(,%rcx,4), %rsi
	movq	-216(%rbp), %rcx
	leaq	(%rsi,%rcx), %rdi
	movl	-1088(%rbp), %ecx
	addl	$5, %ecx
	movslq	%ecx, %rcx
	movl	-1048(%rbp), %esi
	movl	%esi, (%rdi,%rcx,4)
	movl	-1088(%rbp), %ecx
	addl	$7, %ecx
	movslq	%ecx, %rsi
	movslq	%eax, %rcx
	imulq	%rsi, %rcx
	leaq	0(,%rcx,4), %rsi
	movq	-216(%rbp), %rcx
	leaq	(%rsi,%rcx), %rdi
	movl	-1088(%rbp), %ecx
	addl	$6, %ecx
	movslq	%ecx, %rcx
	movl	-1032(%rbp), %esi
	movl	%esi, (%rdi,%rcx,4)
	movl	-1088(%rbp), %ecx
	addl	$4, %ecx
	movslq	%ecx, %rsi
	movslq	%eax, %rcx
	imulq	%rsi, %rcx
	leaq	0(,%rcx,4), %rsi
	movq	-216(%rbp), %rcx
	leaq	(%rsi,%rcx), %rdi
	movl	-1088(%rbp), %ecx
	addl	$7, %ecx
	movslq	%ecx, %rcx
	movl	-1076(%rbp), %esi
	movl	%esi, (%rdi,%rcx,4)
	movl	-1088(%rbp), %ecx
	addl	$5, %ecx
	movslq	%ecx, %rsi
	movslq	%eax, %rcx
	imulq	%rsi, %rcx
	leaq	0(,%rcx,4), %rsi
	movq	-216(%rbp), %rcx
	leaq	(%rsi,%rcx), %rdi
	movl	-1088(%rbp), %ecx
	addl	$7, %ecx
	movslq	%ecx, %rcx
	movl	-1072(%rbp), %esi
	movl	%esi, (%rdi,%rcx,4)
	movl	-1088(%rbp), %ecx
	addl	$6, %ecx
	movslq	%ecx, %rsi
	movslq	%eax, %rcx
	imulq	%rsi, %rcx
	leaq	0(,%rcx,4), %rsi
	movq	-216(%rbp), %rcx
	leaq	(%rsi,%rcx), %rdi
	movl	-1088(%rbp), %ecx
	addl	$7, %ecx
	movslq	%ecx, %rcx
	movl	-1068(%rbp), %esi
	movl	%esi, (%rdi,%rcx,4)
	movl	-1088(%rbp), %ecx
	addl	$7, %ecx
	movslq	%ecx, %rsi
	movslq	%eax, %rcx
	imulq	%rsi, %rcx
	leaq	0(,%rcx,4), %rsi
	movq	-216(%rbp), %rcx
	leaq	(%rsi,%rcx), %rdi
	movl	-1088(%rbp), %ecx
	addl	$7, %ecx
	movslq	%ecx, %rcx
	movl	-1060(%rbp), %esi
	movl	%esi, (%rdi,%rcx,4)
	movl	$0, -1028(%rbp)
	jmp	.L56
.L59:
	movl	$0, -1024(%rbp)
	jmp	.L57
.L58:
	movl	-1088(%rbp), %esi
	movl	-1024(%rbp), %ecx
	addl	%esi, %ecx
	movslq	%ecx, %rsi
	movslq	%edx, %rcx
	imulq	%rsi, %rcx
	leaq	0(,%rcx,4), %rsi
	movq	-224(%rbp), %rcx
	leaq	(%rsi,%rcx), %r8
	movl	-1088(%rbp), %esi
	movl	-1028(%rbp), %ecx
	addl	%esi, %ecx
	leal	4(%rcx), %r10d
	movl	-1088(%rbp), %esi
	movl	-1028(%rbp), %ecx
	addl	%esi, %ecx
	addl	$4, %ecx
	movslq	%ecx, %rsi
	movslq	%eax, %rcx
	imulq	%rsi, %rcx
	leaq	0(,%rcx,4), %rsi
	movq	-216(%rbp), %rcx
	leaq	(%rsi,%rcx), %rdi
	movl	-1088(%rbp), %esi
	movl	-1024(%rbp), %ecx
	leal	(%rsi,%rcx), %r9d
	movslq	%r10d, %rcx
	movl	(%r8,%rcx,4), %esi
	movslq	%r9d, %rcx
	movl	%esi, (%rdi,%rcx,4)
	addl	$1, -1024(%rbp)
.L57:
	cmpl	$3, -1024(%rbp)
	jle	.L58
	addl	$1, -1028(%rbp)
.L56:
	cmpl	$3, -1028(%rbp)
	jle	.L59
	movl	-1088(%rbp), %ecx
	movslq	%ecx, %rsi
	movslq	%edx, %rcx
	imulq	%rsi, %rcx
	leaq	0(,%rcx,4), %rsi
	movq	-224(%rbp), %rcx
	addq	%rcx, %rsi
	movl	-1088(%rbp), %ecx
	movslq	%ecx, %rcx
	movl	(%rsi,%rcx,4), %ecx
	movl	%ecx, -1076(%rbp)
	movl	-1088(%rbp), %ecx
	movslq	%ecx, %rsi
	movslq	%edx, %rcx
	imulq	%rsi, %rcx
	leaq	0(,%rcx,4), %rsi
	movq	-224(%rbp), %rcx
	addq	%rcx, %rsi
	movl	-1088(%rbp), %ecx
	addl	$1, %ecx
	movslq	%ecx, %rcx
	movl	(%rsi,%rcx,4), %ecx
	movl	%ecx, -1072(%rbp)
	movl	-1088(%rbp), %ecx
	movslq	%ecx, %rsi
	movslq	%edx, %rcx
	imulq	%rsi, %rcx
	leaq	0(,%rcx,4), %rsi
	movq	-224(%rbp), %rcx
	addq	%rcx, %rsi
	movl	-1088(%rbp), %ecx
	addl	$2, %ecx
	movslq	%ecx, %rcx
	movl	(%rsi,%rcx,4), %ecx
	movl	%ecx, -1068(%rbp)
	movl	-1088(%rbp), %ecx
	movslq	%ecx, %rsi
	movslq	%edx, %rcx
	imulq	%rsi, %rcx
	leaq	0(,%rcx,4), %rsi
	movq	-224(%rbp), %rcx
	addq	%rcx, %rsi
	movl	-1088(%rbp), %ecx
	addl	$3, %ecx
	movslq	%ecx, %rcx
	movl	(%rsi,%rcx,4), %ecx
	movl	%ecx, -1064(%rbp)
	movl	-1088(%rbp), %ecx
	addl	$1, %ecx
	movslq	%ecx, %rsi
	movslq	%edx, %rcx
	imulq	%rsi, %rcx
	leaq	0(,%rcx,4), %rsi
	movq	-224(%rbp), %rcx
	addq	%rcx, %rsi
	movl	-1088(%rbp), %ecx
	movslq	%ecx, %rcx
	movl	(%rsi,%rcx,4), %ecx
	movl	%ecx, -1060(%rbp)
	movl	-1088(%rbp), %ecx
	addl	$1, %ecx
	movslq	%ecx, %rsi
	movslq	%edx, %rcx
	imulq	%rsi, %rcx
	leaq	0(,%rcx,4), %rsi
	movq	-224(%rbp), %rcx
	addq	%rcx, %rsi
	movl	-1088(%rbp), %ecx
	addl	$1, %ecx
	movslq	%ecx, %rcx
	movl	(%rsi,%rcx,4), %ecx
	movl	%ecx, -1056(%rbp)
	movl	-1088(%rbp), %ecx
	addl	$1, %ecx
	movslq	%ecx, %rsi
	movslq	%edx, %rcx
	imulq	%rsi, %rcx
	leaq	0(,%rcx,4), %rsi
	movq	-224(%rbp), %rcx
	addq	%rcx, %rsi
	movl	-1088(%rbp), %ecx
	addl	$2, %ecx
	movslq	%ecx, %rcx
	movl	(%rsi,%rcx,4), %ecx
	movl	%ecx, -1052(%rbp)
	movl	-1088(%rbp), %ecx
	addl	$1, %ecx
	movslq	%ecx, %rsi
	movslq	%edx, %rcx
	imulq	%rsi, %rcx
	leaq	0(,%rcx,4), %rsi
	movq	-224(%rbp), %rcx
	addq	%rcx, %rsi
	movl	-1088(%rbp), %ecx
	addl	$3, %ecx
	movslq	%ecx, %rcx
	movl	(%rsi,%rcx,4), %ecx
	movl	%ecx, -1048(%rbp)
	movl	-1088(%rbp), %ecx
	addl	$2, %ecx
	movslq	%ecx, %rsi
	movslq	%edx, %rcx
	imulq	%rsi, %rcx
	leaq	0(,%rcx,4), %rsi
	movq	-224(%rbp), %rcx
	addq	%rcx, %rsi
	movl	-1088(%rbp), %ecx
	movslq	%ecx, %rcx
	movl	(%rsi,%rcx,4), %ecx
	movl	%ecx, -1044(%rbp)
	movl	-1088(%rbp), %ecx
	addl	$2, %ecx
	movslq	%ecx, %rsi
	movslq	%edx, %rcx
	imulq	%rsi, %rcx
	leaq	0(,%rcx,4), %rsi
	movq	-224(%rbp), %rcx
	addq	%rcx, %rsi
	movl	-1088(%rbp), %ecx
	addl	$1, %ecx
	movslq	%ecx, %rcx
	movl	(%rsi,%rcx,4), %ecx
	movl	%ecx, -1040(%rbp)
	movl	-1088(%rbp), %ecx
	addl	$2, %ecx
	movslq	%ecx, %rsi
	movslq	%edx, %rcx
	imulq	%rsi, %rcx
	leaq	0(,%rcx,4), %rsi
	movq	-224(%rbp), %rcx
	addq	%rcx, %rsi
	movl	-1088(%rbp), %ecx
	addl	$2, %ecx
	movslq	%ecx, %rcx
	movl	(%rsi,%rcx,4), %ecx
	movl	%ecx, -1036(%rbp)
	movl	-1088(%rbp), %ecx
	addl	$2, %ecx
	movslq	%ecx, %rsi
	movslq	%edx, %rcx
	imulq	%rsi, %rcx
	leaq	0(,%rcx,4), %rsi
	movq	-224(%rbp), %rcx
	addq	%rcx, %rsi
	movl	-1088(%rbp), %ecx
	addl	$3, %ecx
	movslq	%ecx, %rcx
	movl	(%rsi,%rcx,4), %ecx
	movl	%ecx, -1032(%rbp)
	movl	-1088(%rbp), %ecx
	movslq	%ecx, %rsi
	movslq	%eax, %rcx
	imulq	%rsi, %rcx
	leaq	0(,%rcx,4), %rsi
	movq	-216(%rbp), %rcx
	leaq	(%rsi,%rcx), %rdi
	movl	-1088(%rbp), %ecx
	movslq	%ecx, %rcx
	movl	-1076(%rbp), %esi
	movl	%esi, (%rdi,%rcx,4)
	movl	-1088(%rbp), %ecx
	addl	$1, %ecx
	movslq	%ecx, %rsi
	movslq	%eax, %rcx
	imulq	%rsi, %rcx
	leaq	0(,%rcx,4), %rsi
	movq	-216(%rbp), %rcx
	leaq	(%rsi,%rcx), %rdi
	movl	-1088(%rbp), %ecx
	movslq	%ecx, %rcx
	movl	-1072(%rbp), %esi
	movl	%esi, (%rdi,%rcx,4)
	movl	-1088(%rbp), %ecx
	addl	$2, %ecx
	movslq	%ecx, %rsi
	movslq	%eax, %rcx
	imulq	%rsi, %rcx
	leaq	0(,%rcx,4), %rsi
	movq	-216(%rbp), %rcx
	leaq	(%rsi,%rcx), %rdi
	movl	-1088(%rbp), %ecx
	movslq	%ecx, %rcx
	movl	-1068(%rbp), %esi
	movl	%esi, (%rdi,%rcx,4)
	movl	-1088(%rbp), %ecx
	movslq	%ecx, %rsi
	movslq	%eax, %rcx
	imulq	%rsi, %rcx
	leaq	0(,%rcx,4), %rsi
	movq	-216(%rbp), %rcx
	leaq	(%rsi,%rcx), %rdi
	movl	-1088(%rbp), %ecx
	addl	$1, %ecx
	movslq	%ecx, %rcx
	movl	-1060(%rbp), %esi
	movl	%esi, (%rdi,%rcx,4)
	movl	-1088(%rbp), %ecx
	addl	$1, %ecx
	movslq	%ecx, %rsi
	movslq	%eax, %rcx
	imulq	%rsi, %rcx
	leaq	0(,%rcx,4), %rsi
	movq	-216(%rbp), %rcx
	leaq	(%rsi,%rcx), %rdi
	movl	-1088(%rbp), %ecx
	addl	$1, %ecx
	movslq	%ecx, %rcx
	movl	-1056(%rbp), %esi
	movl	%esi, (%rdi,%rcx,4)
	movl	-1088(%rbp), %ecx
	addl	$2, %ecx
	movslq	%ecx, %rsi
	movslq	%eax, %rcx
	imulq	%rsi, %rcx
	leaq	0(,%rcx,4), %rsi
	movq	-216(%rbp), %rcx
	leaq	(%rsi,%rcx), %rdi
	movl	-1088(%rbp), %ecx
	addl	$1, %ecx
	movslq	%ecx, %rcx
	movl	-1052(%rbp), %esi
	movl	%esi, (%rdi,%rcx,4)
	movl	-1088(%rbp), %ecx
	movslq	%ecx, %rsi
	movslq	%eax, %rcx
	imulq	%rsi, %rcx
	leaq	0(,%rcx,4), %rsi
	movq	-216(%rbp), %rcx
	leaq	(%rsi,%rcx), %rdi
	movl	-1088(%rbp), %ecx
	addl	$2, %ecx
	movslq	%ecx, %rcx
	movl	-1044(%rbp), %esi
	movl	%esi, (%rdi,%rcx,4)
	movl	-1088(%rbp), %ecx
	addl	$1, %ecx
	movslq	%ecx, %rsi
	movslq	%eax, %rcx
	imulq	%rsi, %rcx
	leaq	0(,%rcx,4), %rsi
	movq	-216(%rbp), %rcx
	leaq	(%rsi,%rcx), %rdi
	movl	-1088(%rbp), %ecx
	addl	$2, %ecx
	movslq	%ecx, %rcx
	movl	-1040(%rbp), %esi
	movl	%esi, (%rdi,%rcx,4)
	movl	-1088(%rbp), %ecx
	addl	$2, %ecx
	movslq	%ecx, %rsi
	movslq	%eax, %rcx
	imulq	%rsi, %rcx
	leaq	0(,%rcx,4), %rsi
	movq	-216(%rbp), %rcx
	leaq	(%rsi,%rcx), %rdi
	movl	-1088(%rbp), %ecx
	addl	$2, %ecx
	movslq	%ecx, %rcx
	movl	-1036(%rbp), %esi
	movl	%esi, (%rdi,%rcx,4)
	movl	-1088(%rbp), %ecx
	addl	$3, %ecx
	movslq	%ecx, %rsi
	movslq	%edx, %rcx
	imulq	%rsi, %rcx
	leaq	0(,%rcx,4), %rsi
	movq	-224(%rbp), %rcx
	addq	%rcx, %rsi
	movl	-1088(%rbp), %ecx
	movslq	%ecx, %rcx
	movl	(%rsi,%rcx,4), %ecx
	movl	%ecx, -1076(%rbp)
	movl	-1088(%rbp), %ecx
	addl	$3, %ecx
	movslq	%ecx, %rsi
	movslq	%edx, %rcx
	imulq	%rsi, %rcx
	leaq	0(,%rcx,4), %rsi
	movq	-224(%rbp), %rcx
	addq	%rcx, %rsi
	movl	-1088(%rbp), %ecx
	addl	$1, %ecx
	movslq	%ecx, %rcx
	movl	(%rsi,%rcx,4), %ecx
	movl	%ecx, -1072(%rbp)
	movl	-1088(%rbp), %ecx
	addl	$3, %ecx
	movslq	%ecx, %rsi
	movslq	%edx, %rcx
	imulq	%rsi, %rcx
	leaq	0(,%rcx,4), %rsi
	movq	-224(%rbp), %rcx
	addq	%rcx, %rsi
	movl	-1088(%rbp), %ecx
	addl	$2, %ecx
	movslq	%ecx, %rcx
	movl	(%rsi,%rcx,4), %ecx
	movl	%ecx, -1068(%rbp)
	movl	-1088(%rbp), %ecx
	addl	$3, %ecx
	movslq	%ecx, %rcx
	movslq	%edx, %rdx
	imulq	%rcx, %rdx
	leaq	0(,%rdx,4), %rcx
	movq	-224(%rbp), %rdx
	addq	%rdx, %rcx
	movl	-1088(%rbp), %edx
	addl	$3, %edx
	movslq	%edx, %rdx
	movl	(%rcx,%rdx,4), %edx
	movl	%edx, -1060(%rbp)
	movl	-1088(%rbp), %edx
	addl	$3, %edx
	movslq	%edx, %rcx
	movslq	%eax, %rdx
	imulq	%rcx, %rdx
	leaq	0(,%rdx,4), %rcx
	movq	-216(%rbp), %rdx
	leaq	(%rcx,%rdx), %rsi
	movl	-1088(%rbp), %edx
	movslq	%edx, %rdx
	movl	-1064(%rbp), %ecx
	movl	%ecx, (%rsi,%rdx,4)
	movl	-1088(%rbp), %edx
	addl	$3, %edx
	movslq	%edx, %rcx
	movslq	%eax, %rdx
	imulq	%rcx, %rdx
	leaq	0(,%rdx,4), %rcx
	movq	-216(%rbp), %rdx
	leaq	(%rcx,%rdx), %rsi
	movl	-1088(%rbp), %edx
	addl	$1, %edx
	movslq	%edx, %rdx
	movl	-1048(%rbp), %ecx
	movl	%ecx, (%rsi,%rdx,4)
	movl	-1088(%rbp), %edx
	addl	$3, %edx
	movslq	%edx, %rcx
	movslq	%eax, %rdx
	imulq	%rcx, %rdx
	leaq	0(,%rdx,4), %rcx
	movq	-216(%rbp), %rdx
	leaq	(%rcx,%rdx), %rsi
	movl	-1088(%rbp), %edx
	addl	$2, %edx
	movslq	%edx, %rdx
	movl	-1032(%rbp), %ecx
	movl	%ecx, (%rsi,%rdx,4)
	movl	-1088(%rbp), %edx
	movslq	%edx, %rcx
	movslq	%eax, %rdx
	imulq	%rcx, %rdx
	leaq	0(,%rdx,4), %rcx
	movq	-216(%rbp), %rdx
	leaq	(%rcx,%rdx), %rsi
	movl	-1088(%rbp), %edx
	addl	$3, %edx
	movslq	%edx, %rdx
	movl	-1076(%rbp), %ecx
	movl	%ecx, (%rsi,%rdx,4)
	movl	-1088(%rbp), %edx
	addl	$1, %edx
	movslq	%edx, %rcx
	movslq	%eax, %rdx
	imulq	%rcx, %rdx
	leaq	0(,%rdx,4), %rcx
	movq	-216(%rbp), %rdx
	leaq	(%rcx,%rdx), %rsi
	movl	-1088(%rbp), %edx
	addl	$3, %edx
	movslq	%edx, %rdx
	movl	-1072(%rbp), %ecx
	movl	%ecx, (%rsi,%rdx,4)
	movl	-1088(%rbp), %edx
	addl	$2, %edx
	movslq	%edx, %rcx
	movslq	%eax, %rdx
	imulq	%rcx, %rdx
	leaq	0(,%rdx,4), %rcx
	movq	-216(%rbp), %rdx
	leaq	(%rcx,%rdx), %rsi
	movl	-1088(%rbp), %edx
	addl	$3, %edx
	movslq	%edx, %rdx
	movl	-1068(%rbp), %ecx
	movl	%ecx, (%rsi,%rdx,4)
	movl	-1088(%rbp), %edx
	addl	$3, %edx
	movslq	%edx, %rdx
	cltq
	imulq	%rdx, %rax
	leaq	0(,%rax,4), %rdx
	movq	-216(%rbp), %rax
	leaq	(%rdx,%rax), %rcx
	movl	-1088(%rbp), %eax
	addl	$3, %eax
	cltq
	movl	-1060(%rbp), %edx
	movl	%edx, (%rcx,%rax,4)
	nop
	movl	-1584(%rbp), %eax
	movl	%eax, -1020(%rbp)
	movl	-1580(%rbp), %eax
	movl	%eax, -1016(%rbp)
	movq	-640(%rbp), %rax
	movq	%rax, -192(%rbp)
	movq	-632(%rbp), %rax
	movq	%rax, -184(%rbp)
	movl	$8, -1012(%rbp)
	movl	-1020(%rbp), %edx
	movslq	%edx, %rax
	subq	$1, %rax
	movq	%rax, -176(%rbp)
	movl	-1016(%rbp), %eax
	movslq	%eax, %rcx
	subq	$1, %rcx
	movq	%rcx, -168(%rbp)
	movl	$0, -1008(%rbp)
	jmp	.L60
.L63:
	movl	$0, -1004(%rbp)
	jmp	.L61
.L62:
	movl	-1012(%rbp), %esi
	movl	-1004(%rbp), %ecx
	addl	%esi, %ecx
	addl	$4, %ecx
	movslq	%ecx, %rsi
	movslq	%edx, %rcx
	imulq	%rsi, %rcx
	leaq	0(,%rcx,4), %rsi
	movq	-192(%rbp), %rcx
	leaq	(%rsi,%rcx), %r8
	movl	-1012(%rbp), %esi
	movl	-1008(%rbp), %ecx
	leal	(%rsi,%rcx), %r10d
	movl	-1012(%rbp), %esi
	movl	-1008(%rbp), %ecx
	addl	%esi, %ecx
	movslq	%ecx, %rsi
	movslq	%eax, %rcx
	imulq	%rsi, %rcx
	leaq	0(,%rcx,4), %rsi
	movq	-184(%rbp), %rcx
	leaq	(%rsi,%rcx), %rdi
	movl	-1012(%rbp), %esi
	movl	-1004(%rbp), %ecx
	addl	%esi, %ecx
	leal	4(%rcx), %r9d
	movslq	%r10d, %rcx
	movl	(%r8,%rcx,4), %esi
	movslq	%r9d, %rcx
	movl	%esi, (%rdi,%rcx,4)
	addl	$1, -1004(%rbp)
.L61:
	cmpl	$3, -1004(%rbp)
	jle	.L62
	addl	$1, -1008(%rbp)
.L60:
	cmpl	$3, -1008(%rbp)
	jle	.L63
	movl	-1012(%rbp), %ecx
	addl	$4, %ecx
	movslq	%ecx, %rsi
	movslq	%edx, %rcx
	imulq	%rsi, %rcx
	leaq	0(,%rcx,4), %rsi
	movq	-192(%rbp), %rcx
	addq	%rcx, %rsi
	movl	-1012(%rbp), %ecx
	addl	$4, %ecx
	movslq	%ecx, %rcx
	movl	(%rsi,%rcx,4), %ecx
	movl	%ecx, -1000(%rbp)
	movl	-1012(%rbp), %ecx
	addl	$4, %ecx
	movslq	%ecx, %rsi
	movslq	%edx, %rcx
	imulq	%rsi, %rcx
	leaq	0(,%rcx,4), %rsi
	movq	-192(%rbp), %rcx
	addq	%rcx, %rsi
	movl	-1012(%rbp), %ecx
	addl	$5, %ecx
	movslq	%ecx, %rcx
	movl	(%rsi,%rcx,4), %ecx
	movl	%ecx, -996(%rbp)
	movl	-1012(%rbp), %ecx
	addl	$4, %ecx
	movslq	%ecx, %rsi
	movslq	%edx, %rcx
	imulq	%rsi, %rcx
	leaq	0(,%rcx,4), %rsi
	movq	-192(%rbp), %rcx
	addq	%rcx, %rsi
	movl	-1012(%rbp), %ecx
	addl	$6, %ecx
	movslq	%ecx, %rcx
	movl	(%rsi,%rcx,4), %ecx
	movl	%ecx, -992(%rbp)
	movl	-1012(%rbp), %ecx
	addl	$4, %ecx
	movslq	%ecx, %rsi
	movslq	%edx, %rcx
	imulq	%rsi, %rcx
	leaq	0(,%rcx,4), %rsi
	movq	-192(%rbp), %rcx
	addq	%rcx, %rsi
	movl	-1012(%rbp), %ecx
	addl	$7, %ecx
	movslq	%ecx, %rcx
	movl	(%rsi,%rcx,4), %ecx
	movl	%ecx, -988(%rbp)
	movl	-1012(%rbp), %ecx
	addl	$5, %ecx
	movslq	%ecx, %rsi
	movslq	%edx, %rcx
	imulq	%rsi, %rcx
	leaq	0(,%rcx,4), %rsi
	movq	-192(%rbp), %rcx
	addq	%rcx, %rsi
	movl	-1012(%rbp), %ecx
	addl	$4, %ecx
	movslq	%ecx, %rcx
	movl	(%rsi,%rcx,4), %ecx
	movl	%ecx, -984(%rbp)
	movl	-1012(%rbp), %ecx
	addl	$5, %ecx
	movslq	%ecx, %rsi
	movslq	%edx, %rcx
	imulq	%rsi, %rcx
	leaq	0(,%rcx,4), %rsi
	movq	-192(%rbp), %rcx
	addq	%rcx, %rsi
	movl	-1012(%rbp), %ecx
	addl	$5, %ecx
	movslq	%ecx, %rcx
	movl	(%rsi,%rcx,4), %ecx
	movl	%ecx, -980(%rbp)
	movl	-1012(%rbp), %ecx
	addl	$5, %ecx
	movslq	%ecx, %rsi
	movslq	%edx, %rcx
	imulq	%rsi, %rcx
	leaq	0(,%rcx,4), %rsi
	movq	-192(%rbp), %rcx
	addq	%rcx, %rsi
	movl	-1012(%rbp), %ecx
	addl	$6, %ecx
	movslq	%ecx, %rcx
	movl	(%rsi,%rcx,4), %ecx
	movl	%ecx, -976(%rbp)
	movl	-1012(%rbp), %ecx
	addl	$5, %ecx
	movslq	%ecx, %rsi
	movslq	%edx, %rcx
	imulq	%rsi, %rcx
	leaq	0(,%rcx,4), %rsi
	movq	-192(%rbp), %rcx
	addq	%rcx, %rsi
	movl	-1012(%rbp), %ecx
	addl	$7, %ecx
	movslq	%ecx, %rcx
	movl	(%rsi,%rcx,4), %ecx
	movl	%ecx, -972(%rbp)
	movl	-1012(%rbp), %ecx
	addl	$6, %ecx
	movslq	%ecx, %rsi
	movslq	%edx, %rcx
	imulq	%rsi, %rcx
	leaq	0(,%rcx,4), %rsi
	movq	-192(%rbp), %rcx
	addq	%rcx, %rsi
	movl	-1012(%rbp), %ecx
	addl	$4, %ecx
	movslq	%ecx, %rcx
	movl	(%rsi,%rcx,4), %ecx
	movl	%ecx, -968(%rbp)
	movl	-1012(%rbp), %ecx
	addl	$6, %ecx
	movslq	%ecx, %rsi
	movslq	%edx, %rcx
	imulq	%rsi, %rcx
	leaq	0(,%rcx,4), %rsi
	movq	-192(%rbp), %rcx
	addq	%rcx, %rsi
	movl	-1012(%rbp), %ecx
	addl	$5, %ecx
	movslq	%ecx, %rcx
	movl	(%rsi,%rcx,4), %ecx
	movl	%ecx, -964(%rbp)
	movl	-1012(%rbp), %ecx
	addl	$6, %ecx
	movslq	%ecx, %rsi
	movslq	%edx, %rcx
	imulq	%rsi, %rcx
	leaq	0(,%rcx,4), %rsi
	movq	-192(%rbp), %rcx
	addq	%rcx, %rsi
	movl	-1012(%rbp), %ecx
	addl	$6, %ecx
	movslq	%ecx, %rcx
	movl	(%rsi,%rcx,4), %ecx
	movl	%ecx, -960(%rbp)
	movl	-1012(%rbp), %ecx
	addl	$6, %ecx
	movslq	%ecx, %rsi
	movslq	%edx, %rcx
	imulq	%rsi, %rcx
	leaq	0(,%rcx,4), %rsi
	movq	-192(%rbp), %rcx
	addq	%rcx, %rsi
	movl	-1012(%rbp), %ecx
	addl	$7, %ecx
	movslq	%ecx, %rcx
	movl	(%rsi,%rcx,4), %ecx
	movl	%ecx, -956(%rbp)
	movl	-1012(%rbp), %ecx
	addl	$4, %ecx
	movslq	%ecx, %rsi
	movslq	%eax, %rcx
	imulq	%rsi, %rcx
	leaq	0(,%rcx,4), %rsi
	movq	-184(%rbp), %rcx
	leaq	(%rsi,%rcx), %rdi
	movl	-1012(%rbp), %ecx
	addl	$4, %ecx
	movslq	%ecx, %rcx
	movl	-1000(%rbp), %esi
	movl	%esi, (%rdi,%rcx,4)
	movl	-1012(%rbp), %ecx
	addl	$5, %ecx
	movslq	%ecx, %rsi
	movslq	%eax, %rcx
	imulq	%rsi, %rcx
	leaq	0(,%rcx,4), %rsi
	movq	-184(%rbp), %rcx
	leaq	(%rsi,%rcx), %rdi
	movl	-1012(%rbp), %ecx
	addl	$4, %ecx
	movslq	%ecx, %rcx
	movl	-996(%rbp), %esi
	movl	%esi, (%rdi,%rcx,4)
	movl	-1012(%rbp), %ecx
	addl	$6, %ecx
	movslq	%ecx, %rsi
	movslq	%eax, %rcx
	imulq	%rsi, %rcx
	leaq	0(,%rcx,4), %rsi
	movq	-184(%rbp), %rcx
	leaq	(%rsi,%rcx), %rdi
	movl	-1012(%rbp), %ecx
	addl	$4, %ecx
	movslq	%ecx, %rcx
	movl	-992(%rbp), %esi
	movl	%esi, (%rdi,%rcx,4)
	movl	-1012(%rbp), %ecx
	addl	$4, %ecx
	movslq	%ecx, %rsi
	movslq	%eax, %rcx
	imulq	%rsi, %rcx
	leaq	0(,%rcx,4), %rsi
	movq	-184(%rbp), %rcx
	leaq	(%rsi,%rcx), %rdi
	movl	-1012(%rbp), %ecx
	addl	$5, %ecx
	movslq	%ecx, %rcx
	movl	-984(%rbp), %esi
	movl	%esi, (%rdi,%rcx,4)
	movl	-1012(%rbp), %ecx
	addl	$5, %ecx
	movslq	%ecx, %rsi
	movslq	%eax, %rcx
	imulq	%rsi, %rcx
	leaq	0(,%rcx,4), %rsi
	movq	-184(%rbp), %rcx
	leaq	(%rsi,%rcx), %rdi
	movl	-1012(%rbp), %ecx
	addl	$5, %ecx
	movslq	%ecx, %rcx
	movl	-980(%rbp), %esi
	movl	%esi, (%rdi,%rcx,4)
	movl	-1012(%rbp), %ecx
	addl	$6, %ecx
	movslq	%ecx, %rsi
	movslq	%eax, %rcx
	imulq	%rsi, %rcx
	leaq	0(,%rcx,4), %rsi
	movq	-184(%rbp), %rcx
	leaq	(%rsi,%rcx), %rdi
	movl	-1012(%rbp), %ecx
	addl	$5, %ecx
	movslq	%ecx, %rcx
	movl	-976(%rbp), %esi
	movl	%esi, (%rdi,%rcx,4)
	movl	-1012(%rbp), %ecx
	addl	$4, %ecx
	movslq	%ecx, %rsi
	movslq	%eax, %rcx
	imulq	%rsi, %rcx
	leaq	0(,%rcx,4), %rsi
	movq	-184(%rbp), %rcx
	leaq	(%rsi,%rcx), %rdi
	movl	-1012(%rbp), %ecx
	addl	$6, %ecx
	movslq	%ecx, %rcx
	movl	-968(%rbp), %esi
	movl	%esi, (%rdi,%rcx,4)
	movl	-1012(%rbp), %ecx
	addl	$5, %ecx
	movslq	%ecx, %rsi
	movslq	%eax, %rcx
	imulq	%rsi, %rcx
	leaq	0(,%rcx,4), %rsi
	movq	-184(%rbp), %rcx
	leaq	(%rsi,%rcx), %rdi
	movl	-1012(%rbp), %ecx
	addl	$6, %ecx
	movslq	%ecx, %rcx
	movl	-964(%rbp), %esi
	movl	%esi, (%rdi,%rcx,4)
	movl	-1012(%rbp), %ecx
	addl	$6, %ecx
	movslq	%ecx, %rsi
	movslq	%eax, %rcx
	imulq	%rsi, %rcx
	leaq	0(,%rcx,4), %rsi
	movq	-184(%rbp), %rcx
	leaq	(%rsi,%rcx), %rdi
	movl	-1012(%rbp), %ecx
	addl	$6, %ecx
	movslq	%ecx, %rcx
	movl	-960(%rbp), %esi
	movl	%esi, (%rdi,%rcx,4)
	movl	-1012(%rbp), %ecx
	addl	$7, %ecx
	movslq	%ecx, %rsi
	movslq	%edx, %rcx
	imulq	%rsi, %rcx
	leaq	0(,%rcx,4), %rsi
	movq	-192(%rbp), %rcx
	addq	%rcx, %rsi
	movl	-1012(%rbp), %ecx
	addl	$4, %ecx
	movslq	%ecx, %rcx
	movl	(%rsi,%rcx,4), %ecx
	movl	%ecx, -1000(%rbp)
	movl	-1012(%rbp), %ecx
	addl	$7, %ecx
	movslq	%ecx, %rsi
	movslq	%edx, %rcx
	imulq	%rsi, %rcx
	leaq	0(,%rcx,4), %rsi
	movq	-192(%rbp), %rcx
	addq	%rcx, %rsi
	movl	-1012(%rbp), %ecx
	addl	$5, %ecx
	movslq	%ecx, %rcx
	movl	(%rsi,%rcx,4), %ecx
	movl	%ecx, -996(%rbp)
	movl	-1012(%rbp), %ecx
	addl	$7, %ecx
	movslq	%ecx, %rsi
	movslq	%edx, %rcx
	imulq	%rsi, %rcx
	leaq	0(,%rcx,4), %rsi
	movq	-192(%rbp), %rcx
	addq	%rcx, %rsi
	movl	-1012(%rbp), %ecx
	addl	$6, %ecx
	movslq	%ecx, %rcx
	movl	(%rsi,%rcx,4), %ecx
	movl	%ecx, -992(%rbp)
	movl	-1012(%rbp), %ecx
	addl	$7, %ecx
	movslq	%ecx, %rsi
	movslq	%edx, %rcx
	imulq	%rsi, %rcx
	leaq	0(,%rcx,4), %rsi
	movq	-192(%rbp), %rcx
	addq	%rcx, %rsi
	movl	-1012(%rbp), %ecx
	addl	$7, %ecx
	movslq	%ecx, %rcx
	movl	(%rsi,%rcx,4), %ecx
	movl	%ecx, -984(%rbp)
	movl	-1012(%rbp), %ecx
	addl	$7, %ecx
	movslq	%ecx, %rsi
	movslq	%eax, %rcx
	imulq	%rsi, %rcx
	leaq	0(,%rcx,4), %rsi
	movq	-184(%rbp), %rcx
	leaq	(%rsi,%rcx), %rdi
	movl	-1012(%rbp), %ecx
	addl	$4, %ecx
	movslq	%ecx, %rcx
	movl	-988(%rbp), %esi
	movl	%esi, (%rdi,%rcx,4)
	movl	-1012(%rbp), %ecx
	addl	$7, %ecx
	movslq	%ecx, %rsi
	movslq	%eax, %rcx
	imulq	%rsi, %rcx
	leaq	0(,%rcx,4), %rsi
	movq	-184(%rbp), %rcx
	leaq	(%rsi,%rcx), %rdi
	movl	-1012(%rbp), %ecx
	addl	$5, %ecx
	movslq	%ecx, %rcx
	movl	-972(%rbp), %esi
	movl	%esi, (%rdi,%rcx,4)
	movl	-1012(%rbp), %ecx
	addl	$7, %ecx
	movslq	%ecx, %rsi
	movslq	%eax, %rcx
	imulq	%rsi, %rcx
	leaq	0(,%rcx,4), %rsi
	movq	-184(%rbp), %rcx
	leaq	(%rsi,%rcx), %rdi
	movl	-1012(%rbp), %ecx
	addl	$6, %ecx
	movslq	%ecx, %rcx
	movl	-956(%rbp), %esi
	movl	%esi, (%rdi,%rcx,4)
	movl	-1012(%rbp), %ecx
	addl	$4, %ecx
	movslq	%ecx, %rsi
	movslq	%eax, %rcx
	imulq	%rsi, %rcx
	leaq	0(,%rcx,4), %rsi
	movq	-184(%rbp), %rcx
	leaq	(%rsi,%rcx), %rdi
	movl	-1012(%rbp), %ecx
	addl	$7, %ecx
	movslq	%ecx, %rcx
	movl	-1000(%rbp), %esi
	movl	%esi, (%rdi,%rcx,4)
	movl	-1012(%rbp), %ecx
	addl	$5, %ecx
	movslq	%ecx, %rsi
	movslq	%eax, %rcx
	imulq	%rsi, %rcx
	leaq	0(,%rcx,4), %rsi
	movq	-184(%rbp), %rcx
	leaq	(%rsi,%rcx), %rdi
	movl	-1012(%rbp), %ecx
	addl	$7, %ecx
	movslq	%ecx, %rcx
	movl	-996(%rbp), %esi
	movl	%esi, (%rdi,%rcx,4)
	movl	-1012(%rbp), %ecx
	addl	$6, %ecx
	movslq	%ecx, %rsi
	movslq	%eax, %rcx
	imulq	%rsi, %rcx
	leaq	0(,%rcx,4), %rsi
	movq	-184(%rbp), %rcx
	leaq	(%rsi,%rcx), %rdi
	movl	-1012(%rbp), %ecx
	addl	$7, %ecx
	movslq	%ecx, %rcx
	movl	-992(%rbp), %esi
	movl	%esi, (%rdi,%rcx,4)
	movl	-1012(%rbp), %ecx
	addl	$7, %ecx
	movslq	%ecx, %rsi
	movslq	%eax, %rcx
	imulq	%rsi, %rcx
	leaq	0(,%rcx,4), %rsi
	movq	-184(%rbp), %rcx
	leaq	(%rsi,%rcx), %rdi
	movl	-1012(%rbp), %ecx
	addl	$7, %ecx
	movslq	%ecx, %rcx
	movl	-984(%rbp), %esi
	movl	%esi, (%rdi,%rcx,4)
	movl	$0, -952(%rbp)
	jmp	.L64
.L67:
	movl	$0, -948(%rbp)
	jmp	.L65
.L66:
	movl	-1012(%rbp), %esi
	movl	-948(%rbp), %ecx
	addl	%esi, %ecx
	movslq	%ecx, %rsi
	movslq	%edx, %rcx
	imulq	%rsi, %rcx
	leaq	0(,%rcx,4), %rsi
	movq	-192(%rbp), %rcx
	leaq	(%rsi,%rcx), %r8
	movl	-1012(%rbp), %esi
	movl	-952(%rbp), %ecx
	addl	%esi, %ecx
	leal	4(%rcx), %r10d
	movl	-1012(%rbp), %esi
	movl	-952(%rbp), %ecx
	addl	%esi, %ecx
	addl	$4, %ecx
	movslq	%ecx, %rsi
	movslq	%eax, %rcx
	imulq	%rsi, %rcx
	leaq	0(,%rcx,4), %rsi
	movq	-184(%rbp), %rcx
	leaq	(%rsi,%rcx), %rdi
	movl	-1012(%rbp), %esi
	movl	-948(%rbp), %ecx
	leal	(%rsi,%rcx), %r9d
	movslq	%r10d, %rcx
	movl	(%r8,%rcx,4), %esi
	movslq	%r9d, %rcx
	movl	%esi, (%rdi,%rcx,4)
	addl	$1, -948(%rbp)
.L65:
	cmpl	$3, -948(%rbp)
	jle	.L66
	addl	$1, -952(%rbp)
.L64:
	cmpl	$3, -952(%rbp)
	jle	.L67
	movl	-1012(%rbp), %ecx
	movslq	%ecx, %rsi
	movslq	%edx, %rcx
	imulq	%rsi, %rcx
	leaq	0(,%rcx,4), %rsi
	movq	-192(%rbp), %rcx
	addq	%rcx, %rsi
	movl	-1012(%rbp), %ecx
	movslq	%ecx, %rcx
	movl	(%rsi,%rcx,4), %ecx
	movl	%ecx, -1000(%rbp)
	movl	-1012(%rbp), %ecx
	movslq	%ecx, %rsi
	movslq	%edx, %rcx
	imulq	%rsi, %rcx
	leaq	0(,%rcx,4), %rsi
	movq	-192(%rbp), %rcx
	addq	%rcx, %rsi
	movl	-1012(%rbp), %ecx
	addl	$1, %ecx
	movslq	%ecx, %rcx
	movl	(%rsi,%rcx,4), %ecx
	movl	%ecx, -996(%rbp)
	movl	-1012(%rbp), %ecx
	movslq	%ecx, %rsi
	movslq	%edx, %rcx
	imulq	%rsi, %rcx
	leaq	0(,%rcx,4), %rsi
	movq	-192(%rbp), %rcx
	addq	%rcx, %rsi
	movl	-1012(%rbp), %ecx
	addl	$2, %ecx
	movslq	%ecx, %rcx
	movl	(%rsi,%rcx,4), %ecx
	movl	%ecx, -992(%rbp)
	movl	-1012(%rbp), %ecx
	movslq	%ecx, %rsi
	movslq	%edx, %rcx
	imulq	%rsi, %rcx
	leaq	0(,%rcx,4), %rsi
	movq	-192(%rbp), %rcx
	addq	%rcx, %rsi
	movl	-1012(%rbp), %ecx
	addl	$3, %ecx
	movslq	%ecx, %rcx
	movl	(%rsi,%rcx,4), %ecx
	movl	%ecx, -988(%rbp)
	movl	-1012(%rbp), %ecx
	addl	$1, %ecx
	movslq	%ecx, %rsi
	movslq	%edx, %rcx
	imulq	%rsi, %rcx
	leaq	0(,%rcx,4), %rsi
	movq	-192(%rbp), %rcx
	addq	%rcx, %rsi
	movl	-1012(%rbp), %ecx
	movslq	%ecx, %rcx
	movl	(%rsi,%rcx,4), %ecx
	movl	%ecx, -984(%rbp)
	movl	-1012(%rbp), %ecx
	addl	$1, %ecx
	movslq	%ecx, %rsi
	movslq	%edx, %rcx
	imulq	%rsi, %rcx
	leaq	0(,%rcx,4), %rsi
	movq	-192(%rbp), %rcx
	addq	%rcx, %rsi
	movl	-1012(%rbp), %ecx
	addl	$1, %ecx
	movslq	%ecx, %rcx
	movl	(%rsi,%rcx,4), %ecx
	movl	%ecx, -980(%rbp)
	movl	-1012(%rbp), %ecx
	addl	$1, %ecx
	movslq	%ecx, %rsi
	movslq	%edx, %rcx
	imulq	%rsi, %rcx
	leaq	0(,%rcx,4), %rsi
	movq	-192(%rbp), %rcx
	addq	%rcx, %rsi
	movl	-1012(%rbp), %ecx
	addl	$2, %ecx
	movslq	%ecx, %rcx
	movl	(%rsi,%rcx,4), %ecx
	movl	%ecx, -976(%rbp)
	movl	-1012(%rbp), %ecx
	addl	$1, %ecx
	movslq	%ecx, %rsi
	movslq	%edx, %rcx
	imulq	%rsi, %rcx
	leaq	0(,%rcx,4), %rsi
	movq	-192(%rbp), %rcx
	addq	%rcx, %rsi
	movl	-1012(%rbp), %ecx
	addl	$3, %ecx
	movslq	%ecx, %rcx
	movl	(%rsi,%rcx,4), %ecx
	movl	%ecx, -972(%rbp)
	movl	-1012(%rbp), %ecx
	addl	$2, %ecx
	movslq	%ecx, %rsi
	movslq	%edx, %rcx
	imulq	%rsi, %rcx
	leaq	0(,%rcx,4), %rsi
	movq	-192(%rbp), %rcx
	addq	%rcx, %rsi
	movl	-1012(%rbp), %ecx
	movslq	%ecx, %rcx
	movl	(%rsi,%rcx,4), %ecx
	movl	%ecx, -968(%rbp)
	movl	-1012(%rbp), %ecx
	addl	$2, %ecx
	movslq	%ecx, %rsi
	movslq	%edx, %rcx
	imulq	%rsi, %rcx
	leaq	0(,%rcx,4), %rsi
	movq	-192(%rbp), %rcx
	addq	%rcx, %rsi
	movl	-1012(%rbp), %ecx
	addl	$1, %ecx
	movslq	%ecx, %rcx
	movl	(%rsi,%rcx,4), %ecx
	movl	%ecx, -964(%rbp)
	movl	-1012(%rbp), %ecx
	addl	$2, %ecx
	movslq	%ecx, %rsi
	movslq	%edx, %rcx
	imulq	%rsi, %rcx
	leaq	0(,%rcx,4), %rsi
	movq	-192(%rbp), %rcx
	addq	%rcx, %rsi
	movl	-1012(%rbp), %ecx
	addl	$2, %ecx
	movslq	%ecx, %rcx
	movl	(%rsi,%rcx,4), %ecx
	movl	%ecx, -960(%rbp)
	movl	-1012(%rbp), %ecx
	addl	$2, %ecx
	movslq	%ecx, %rsi
	movslq	%edx, %rcx
	imulq	%rsi, %rcx
	leaq	0(,%rcx,4), %rsi
	movq	-192(%rbp), %rcx
	addq	%rcx, %rsi
	movl	-1012(%rbp), %ecx
	addl	$3, %ecx
	movslq	%ecx, %rcx
	movl	(%rsi,%rcx,4), %ecx
	movl	%ecx, -956(%rbp)
	movl	-1012(%rbp), %ecx
	movslq	%ecx, %rsi
	movslq	%eax, %rcx
	imulq	%rsi, %rcx
	leaq	0(,%rcx,4), %rsi
	movq	-184(%rbp), %rcx
	leaq	(%rsi,%rcx), %rdi
	movl	-1012(%rbp), %ecx
	movslq	%ecx, %rcx
	movl	-1000(%rbp), %esi
	movl	%esi, (%rdi,%rcx,4)
	movl	-1012(%rbp), %ecx
	addl	$1, %ecx
	movslq	%ecx, %rsi
	movslq	%eax, %rcx
	imulq	%rsi, %rcx
	leaq	0(,%rcx,4), %rsi
	movq	-184(%rbp), %rcx
	leaq	(%rsi,%rcx), %rdi
	movl	-1012(%rbp), %ecx
	movslq	%ecx, %rcx
	movl	-996(%rbp), %esi
	movl	%esi, (%rdi,%rcx,4)
	movl	-1012(%rbp), %ecx
	addl	$2, %ecx
	movslq	%ecx, %rsi
	movslq	%eax, %rcx
	imulq	%rsi, %rcx
	leaq	0(,%rcx,4), %rsi
	movq	-184(%rbp), %rcx
	leaq	(%rsi,%rcx), %rdi
	movl	-1012(%rbp), %ecx
	movslq	%ecx, %rcx
	movl	-992(%rbp), %esi
	movl	%esi, (%rdi,%rcx,4)
	movl	-1012(%rbp), %ecx
	movslq	%ecx, %rsi
	movslq	%eax, %rcx
	imulq	%rsi, %rcx
	leaq	0(,%rcx,4), %rsi
	movq	-184(%rbp), %rcx
	leaq	(%rsi,%rcx), %rdi
	movl	-1012(%rbp), %ecx
	addl	$1, %ecx
	movslq	%ecx, %rcx
	movl	-984(%rbp), %esi
	movl	%esi, (%rdi,%rcx,4)
	movl	-1012(%rbp), %ecx
	addl	$1, %ecx
	movslq	%ecx, %rsi
	movslq	%eax, %rcx
	imulq	%rsi, %rcx
	leaq	0(,%rcx,4), %rsi
	movq	-184(%rbp), %rcx
	leaq	(%rsi,%rcx), %rdi
	movl	-1012(%rbp), %ecx
	addl	$1, %ecx
	movslq	%ecx, %rcx
	movl	-980(%rbp), %esi
	movl	%esi, (%rdi,%rcx,4)
	movl	-1012(%rbp), %ecx
	addl	$2, %ecx
	movslq	%ecx, %rsi
	movslq	%eax, %rcx
	imulq	%rsi, %rcx
	leaq	0(,%rcx,4), %rsi
	movq	-184(%rbp), %rcx
	leaq	(%rsi,%rcx), %rdi
	movl	-1012(%rbp), %ecx
	addl	$1, %ecx
	movslq	%ecx, %rcx
	movl	-976(%rbp), %esi
	movl	%esi, (%rdi,%rcx,4)
	movl	-1012(%rbp), %ecx
	movslq	%ecx, %rsi
	movslq	%eax, %rcx
	imulq	%rsi, %rcx
	leaq	0(,%rcx,4), %rsi
	movq	-184(%rbp), %rcx
	leaq	(%rsi,%rcx), %rdi
	movl	-1012(%rbp), %ecx
	addl	$2, %ecx
	movslq	%ecx, %rcx
	movl	-968(%rbp), %esi
	movl	%esi, (%rdi,%rcx,4)
	movl	-1012(%rbp), %ecx
	addl	$1, %ecx
	movslq	%ecx, %rsi
	movslq	%eax, %rcx
	imulq	%rsi, %rcx
	leaq	0(,%rcx,4), %rsi
	movq	-184(%rbp), %rcx
	leaq	(%rsi,%rcx), %rdi
	movl	-1012(%rbp), %ecx
	addl	$2, %ecx
	movslq	%ecx, %rcx
	movl	-964(%rbp), %esi
	movl	%esi, (%rdi,%rcx,4)
	movl	-1012(%rbp), %ecx
	addl	$2, %ecx
	movslq	%ecx, %rsi
	movslq	%eax, %rcx
	imulq	%rsi, %rcx
	leaq	0(,%rcx,4), %rsi
	movq	-184(%rbp), %rcx
	leaq	(%rsi,%rcx), %rdi
	movl	-1012(%rbp), %ecx
	addl	$2, %ecx
	movslq	%ecx, %rcx
	movl	-960(%rbp), %esi
	movl	%esi, (%rdi,%rcx,4)
	movl	-1012(%rbp), %ecx
	addl	$3, %ecx
	movslq	%ecx, %rsi
	movslq	%edx, %rcx
	imulq	%rsi, %rcx
	leaq	0(,%rcx,4), %rsi
	movq	-192(%rbp), %rcx
	addq	%rcx, %rsi
	movl	-1012(%rbp), %ecx
	movslq	%ecx, %rcx
	movl	(%rsi,%rcx,4), %ecx
	movl	%ecx, -1000(%rbp)
	movl	-1012(%rbp), %ecx
	addl	$3, %ecx
	movslq	%ecx, %rsi
	movslq	%edx, %rcx
	imulq	%rsi, %rcx
	leaq	0(,%rcx,4), %rsi
	movq	-192(%rbp), %rcx
	addq	%rcx, %rsi
	movl	-1012(%rbp), %ecx
	addl	$1, %ecx
	movslq	%ecx, %rcx
	movl	(%rsi,%rcx,4), %ecx
	movl	%ecx, -996(%rbp)
	movl	-1012(%rbp), %ecx
	addl	$3, %ecx
	movslq	%ecx, %rsi
	movslq	%edx, %rcx
	imulq	%rsi, %rcx
	leaq	0(,%rcx,4), %rsi
	movq	-192(%rbp), %rcx
	addq	%rcx, %rsi
	movl	-1012(%rbp), %ecx
	addl	$2, %ecx
	movslq	%ecx, %rcx
	movl	(%rsi,%rcx,4), %ecx
	movl	%ecx, -992(%rbp)
	movl	-1012(%rbp), %ecx
	addl	$3, %ecx
	movslq	%ecx, %rcx
	movslq	%edx, %rdx
	imulq	%rcx, %rdx
	leaq	0(,%rdx,4), %rcx
	movq	-192(%rbp), %rdx
	addq	%rdx, %rcx
	movl	-1012(%rbp), %edx
	addl	$3, %edx
	movslq	%edx, %rdx
	movl	(%rcx,%rdx,4), %edx
	movl	%edx, -984(%rbp)
	movl	-1012(%rbp), %edx
	addl	$3, %edx
	movslq	%edx, %rcx
	movslq	%eax, %rdx
	imulq	%rcx, %rdx
	leaq	0(,%rdx,4), %rcx
	movq	-184(%rbp), %rdx
	leaq	(%rcx,%rdx), %rsi
	movl	-1012(%rbp), %edx
	movslq	%edx, %rdx
	movl	-988(%rbp), %ecx
	movl	%ecx, (%rsi,%rdx,4)
	movl	-1012(%rbp), %edx
	addl	$3, %edx
	movslq	%edx, %rcx
	movslq	%eax, %rdx
	imulq	%rcx, %rdx
	leaq	0(,%rdx,4), %rcx
	movq	-184(%rbp), %rdx
	leaq	(%rcx,%rdx), %rsi
	movl	-1012(%rbp), %edx
	addl	$1, %edx
	movslq	%edx, %rdx
	movl	-972(%rbp), %ecx
	movl	%ecx, (%rsi,%rdx,4)
	movl	-1012(%rbp), %edx
	addl	$3, %edx
	movslq	%edx, %rcx
	movslq	%eax, %rdx
	imulq	%rcx, %rdx
	leaq	0(,%rdx,4), %rcx
	movq	-184(%rbp), %rdx
	leaq	(%rcx,%rdx), %rsi
	movl	-1012(%rbp), %edx
	addl	$2, %edx
	movslq	%edx, %rdx
	movl	-956(%rbp), %ecx
	movl	%ecx, (%rsi,%rdx,4)
	movl	-1012(%rbp), %edx
	movslq	%edx, %rcx
	movslq	%eax, %rdx
	imulq	%rcx, %rdx
	leaq	0(,%rdx,4), %rcx
	movq	-184(%rbp), %rdx
	leaq	(%rcx,%rdx), %rsi
	movl	-1012(%rbp), %edx
	addl	$3, %edx
	movslq	%edx, %rdx
	movl	-1000(%rbp), %ecx
	movl	%ecx, (%rsi,%rdx,4)
	movl	-1012(%rbp), %edx
	addl	$1, %edx
	movslq	%edx, %rcx
	movslq	%eax, %rdx
	imulq	%rcx, %rdx
	leaq	0(,%rdx,4), %rcx
	movq	-184(%rbp), %rdx
	leaq	(%rcx,%rdx), %rsi
	movl	-1012(%rbp), %edx
	addl	$3, %edx
	movslq	%edx, %rdx
	movl	-996(%rbp), %ecx
	movl	%ecx, (%rsi,%rdx,4)
	movl	-1012(%rbp), %edx
	addl	$2, %edx
	movslq	%edx, %rcx
	movslq	%eax, %rdx
	imulq	%rcx, %rdx
	leaq	0(,%rdx,4), %rcx
	movq	-184(%rbp), %rdx
	leaq	(%rcx,%rdx), %rsi
	movl	-1012(%rbp), %edx
	addl	$3, %edx
	movslq	%edx, %rdx
	movl	-992(%rbp), %ecx
	movl	%ecx, (%rsi,%rdx,4)
	movl	-1012(%rbp), %edx
	addl	$3, %edx
	movslq	%edx, %rdx
	cltq
	imulq	%rdx, %rax
	leaq	0(,%rax,4), %rdx
	movq	-184(%rbp), %rax
	leaq	(%rdx,%rax), %rcx
	movl	-1012(%rbp), %eax
	addl	$3, %eax
	cltq
	movl	-984(%rbp), %edx
	movl	%edx, (%rcx,%rax,4)
	nop
	movl	-1584(%rbp), %eax
	movl	%eax, -944(%rbp)
	movl	-1580(%rbp), %eax
	movl	%eax, -940(%rbp)
	movq	-640(%rbp), %rax
	movq	%rax, -160(%rbp)
	movq	-632(%rbp), %rax
	movq	%rax, -152(%rbp)
	movl	$16, -936(%rbp)
	movl	-944(%rbp), %edx
	movslq	%edx, %rax
	subq	$1, %rax
	movq	%rax, -144(%rbp)
	movl	-940(%rbp), %eax
	movslq	%eax, %rcx
	subq	$1, %rcx
	movq	%rcx, -136(%rbp)
	movl	$0, -932(%rbp)
	jmp	.L68
.L71:
	movl	$0, -928(%rbp)
	jmp	.L69
.L70:
	movl	-936(%rbp), %esi
	movl	-928(%rbp), %ecx
	addl	%esi, %ecx
	addl	$4, %ecx
	movslq	%ecx, %rsi
	movslq	%edx, %rcx
	imulq	%rsi, %rcx
	leaq	0(,%rcx,4), %rsi
	movq	-160(%rbp), %rcx
	leaq	(%rsi,%rcx), %r8
	movl	-936(%rbp), %esi
	movl	-932(%rbp), %ecx
	leal	(%rsi,%rcx), %r10d
	movl	-936(%rbp), %esi
	movl	-932(%rbp), %ecx
	addl	%esi, %ecx
	movslq	%ecx, %rsi
	movslq	%eax, %rcx
	imulq	%rsi, %rcx
	leaq	0(,%rcx,4), %rsi
	movq	-152(%rbp), %rcx
	leaq	(%rsi,%rcx), %rdi
	movl	-936(%rbp), %esi
	movl	-928(%rbp), %ecx
	addl	%esi, %ecx
	leal	4(%rcx), %r9d
	movslq	%r10d, %rcx
	movl	(%r8,%rcx,4), %esi
	movslq	%r9d, %rcx
	movl	%esi, (%rdi,%rcx,4)
	addl	$1, -928(%rbp)
.L69:
	cmpl	$3, -928(%rbp)
	jle	.L70
	addl	$1, -932(%rbp)
.L68:
	cmpl	$3, -932(%rbp)
	jle	.L71
	movl	-936(%rbp), %ecx
	addl	$4, %ecx
	movslq	%ecx, %rsi
	movslq	%edx, %rcx
	imulq	%rsi, %rcx
	leaq	0(,%rcx,4), %rsi
	movq	-160(%rbp), %rcx
	addq	%rcx, %rsi
	movl	-936(%rbp), %ecx
	addl	$4, %ecx
	movslq	%ecx, %rcx
	movl	(%rsi,%rcx,4), %ecx
	movl	%ecx, -924(%rbp)
	movl	-936(%rbp), %ecx
	addl	$4, %ecx
	movslq	%ecx, %rsi
	movslq	%edx, %rcx
	imulq	%rsi, %rcx
	leaq	0(,%rcx,4), %rsi
	movq	-160(%rbp), %rcx
	addq	%rcx, %rsi
	movl	-936(%rbp), %ecx
	addl	$5, %ecx
	movslq	%ecx, %rcx
	movl	(%rsi,%rcx,4), %ecx
	movl	%ecx, -920(%rbp)
	movl	-936(%rbp), %ecx
	addl	$4, %ecx
	movslq	%ecx, %rsi
	movslq	%edx, %rcx
	imulq	%rsi, %rcx
	leaq	0(,%rcx,4), %rsi
	movq	-160(%rbp), %rcx
	addq	%rcx, %rsi
	movl	-936(%rbp), %ecx
	addl	$6, %ecx
	movslq	%ecx, %rcx
	movl	(%rsi,%rcx,4), %ecx
	movl	%ecx, -916(%rbp)
	movl	-936(%rbp), %ecx
	addl	$4, %ecx
	movslq	%ecx, %rsi
	movslq	%edx, %rcx
	imulq	%rsi, %rcx
	leaq	0(,%rcx,4), %rsi
	movq	-160(%rbp), %rcx
	addq	%rcx, %rsi
	movl	-936(%rbp), %ecx
	addl	$7, %ecx
	movslq	%ecx, %rcx
	movl	(%rsi,%rcx,4), %ecx
	movl	%ecx, -912(%rbp)
	movl	-936(%rbp), %ecx
	addl	$5, %ecx
	movslq	%ecx, %rsi
	movslq	%edx, %rcx
	imulq	%rsi, %rcx
	leaq	0(,%rcx,4), %rsi
	movq	-160(%rbp), %rcx
	addq	%rcx, %rsi
	movl	-936(%rbp), %ecx
	addl	$4, %ecx
	movslq	%ecx, %rcx
	movl	(%rsi,%rcx,4), %ecx
	movl	%ecx, -908(%rbp)
	movl	-936(%rbp), %ecx
	addl	$5, %ecx
	movslq	%ecx, %rsi
	movslq	%edx, %rcx
	imulq	%rsi, %rcx
	leaq	0(,%rcx,4), %rsi
	movq	-160(%rbp), %rcx
	addq	%rcx, %rsi
	movl	-936(%rbp), %ecx
	addl	$5, %ecx
	movslq	%ecx, %rcx
	movl	(%rsi,%rcx,4), %ecx
	movl	%ecx, -904(%rbp)
	movl	-936(%rbp), %ecx
	addl	$5, %ecx
	movslq	%ecx, %rsi
	movslq	%edx, %rcx
	imulq	%rsi, %rcx
	leaq	0(,%rcx,4), %rsi
	movq	-160(%rbp), %rcx
	addq	%rcx, %rsi
	movl	-936(%rbp), %ecx
	addl	$6, %ecx
	movslq	%ecx, %rcx
	movl	(%rsi,%rcx,4), %ecx
	movl	%ecx, -900(%rbp)
	movl	-936(%rbp), %ecx
	addl	$5, %ecx
	movslq	%ecx, %rsi
	movslq	%edx, %rcx
	imulq	%rsi, %rcx
	leaq	0(,%rcx,4), %rsi
	movq	-160(%rbp), %rcx
	addq	%rcx, %rsi
	movl	-936(%rbp), %ecx
	addl	$7, %ecx
	movslq	%ecx, %rcx
	movl	(%rsi,%rcx,4), %ecx
	movl	%ecx, -896(%rbp)
	movl	-936(%rbp), %ecx
	addl	$6, %ecx
	movslq	%ecx, %rsi
	movslq	%edx, %rcx
	imulq	%rsi, %rcx
	leaq	0(,%rcx,4), %rsi
	movq	-160(%rbp), %rcx
	addq	%rcx, %rsi
	movl	-936(%rbp), %ecx
	addl	$4, %ecx
	movslq	%ecx, %rcx
	movl	(%rsi,%rcx,4), %ecx
	movl	%ecx, -892(%rbp)
	movl	-936(%rbp), %ecx
	addl	$6, %ecx
	movslq	%ecx, %rsi
	movslq	%edx, %rcx
	imulq	%rsi, %rcx
	leaq	0(,%rcx,4), %rsi
	movq	-160(%rbp), %rcx
	addq	%rcx, %rsi
	movl	-936(%rbp), %ecx
	addl	$5, %ecx
	movslq	%ecx, %rcx
	movl	(%rsi,%rcx,4), %ecx
	movl	%ecx, -888(%rbp)
	movl	-936(%rbp), %ecx
	addl	$6, %ecx
	movslq	%ecx, %rsi
	movslq	%edx, %rcx
	imulq	%rsi, %rcx
	leaq	0(,%rcx,4), %rsi
	movq	-160(%rbp), %rcx
	addq	%rcx, %rsi
	movl	-936(%rbp), %ecx
	addl	$6, %ecx
	movslq	%ecx, %rcx
	movl	(%rsi,%rcx,4), %ecx
	movl	%ecx, -884(%rbp)
	movl	-936(%rbp), %ecx
	addl	$6, %ecx
	movslq	%ecx, %rsi
	movslq	%edx, %rcx
	imulq	%rsi, %rcx
	leaq	0(,%rcx,4), %rsi
	movq	-160(%rbp), %rcx
	addq	%rcx, %rsi
	movl	-936(%rbp), %ecx
	addl	$7, %ecx
	movslq	%ecx, %rcx
	movl	(%rsi,%rcx,4), %ecx
	movl	%ecx, -880(%rbp)
	movl	-936(%rbp), %ecx
	addl	$4, %ecx
	movslq	%ecx, %rsi
	movslq	%eax, %rcx
	imulq	%rsi, %rcx
	leaq	0(,%rcx,4), %rsi
	movq	-152(%rbp), %rcx
	leaq	(%rsi,%rcx), %rdi
	movl	-936(%rbp), %ecx
	addl	$4, %ecx
	movslq	%ecx, %rcx
	movl	-924(%rbp), %esi
	movl	%esi, (%rdi,%rcx,4)
	movl	-936(%rbp), %ecx
	addl	$5, %ecx
	movslq	%ecx, %rsi
	movslq	%eax, %rcx
	imulq	%rsi, %rcx
	leaq	0(,%rcx,4), %rsi
	movq	-152(%rbp), %rcx
	leaq	(%rsi,%rcx), %rdi
	movl	-936(%rbp), %ecx
	addl	$4, %ecx
	movslq	%ecx, %rcx
	movl	-920(%rbp), %esi
	movl	%esi, (%rdi,%rcx,4)
	movl	-936(%rbp), %ecx
	addl	$6, %ecx
	movslq	%ecx, %rsi
	movslq	%eax, %rcx
	imulq	%rsi, %rcx
	leaq	0(,%rcx,4), %rsi
	movq	-152(%rbp), %rcx
	leaq	(%rsi,%rcx), %rdi
	movl	-936(%rbp), %ecx
	addl	$4, %ecx
	movslq	%ecx, %rcx
	movl	-916(%rbp), %esi
	movl	%esi, (%rdi,%rcx,4)
	movl	-936(%rbp), %ecx
	addl	$4, %ecx
	movslq	%ecx, %rsi
	movslq	%eax, %rcx
	imulq	%rsi, %rcx
	leaq	0(,%rcx,4), %rsi
	movq	-152(%rbp), %rcx
	leaq	(%rsi,%rcx), %rdi
	movl	-936(%rbp), %ecx
	addl	$5, %ecx
	movslq	%ecx, %rcx
	movl	-908(%rbp), %esi
	movl	%esi, (%rdi,%rcx,4)
	movl	-936(%rbp), %ecx
	addl	$5, %ecx
	movslq	%ecx, %rsi
	movslq	%eax, %rcx
	imulq	%rsi, %rcx
	leaq	0(,%rcx,4), %rsi
	movq	-152(%rbp), %rcx
	leaq	(%rsi,%rcx), %rdi
	movl	-936(%rbp), %ecx
	addl	$5, %ecx
	movslq	%ecx, %rcx
	movl	-904(%rbp), %esi
	movl	%esi, (%rdi,%rcx,4)
	movl	-936(%rbp), %ecx
	addl	$6, %ecx
	movslq	%ecx, %rsi
	movslq	%eax, %rcx
	imulq	%rsi, %rcx
	leaq	0(,%rcx,4), %rsi
	movq	-152(%rbp), %rcx
	leaq	(%rsi,%rcx), %rdi
	movl	-936(%rbp), %ecx
	addl	$5, %ecx
	movslq	%ecx, %rcx
	movl	-900(%rbp), %esi
	movl	%esi, (%rdi,%rcx,4)
	movl	-936(%rbp), %ecx
	addl	$4, %ecx
	movslq	%ecx, %rsi
	movslq	%eax, %rcx
	imulq	%rsi, %rcx
	leaq	0(,%rcx,4), %rsi
	movq	-152(%rbp), %rcx
	leaq	(%rsi,%rcx), %rdi
	movl	-936(%rbp), %ecx
	addl	$6, %ecx
	movslq	%ecx, %rcx
	movl	-892(%rbp), %esi
	movl	%esi, (%rdi,%rcx,4)
	movl	-936(%rbp), %ecx
	addl	$5, %ecx
	movslq	%ecx, %rsi
	movslq	%eax, %rcx
	imulq	%rsi, %rcx
	leaq	0(,%rcx,4), %rsi
	movq	-152(%rbp), %rcx
	leaq	(%rsi,%rcx), %rdi
	movl	-936(%rbp), %ecx
	addl	$6, %ecx
	movslq	%ecx, %rcx
	movl	-888(%rbp), %esi
	movl	%esi, (%rdi,%rcx,4)
	movl	-936(%rbp), %ecx
	addl	$6, %ecx
	movslq	%ecx, %rsi
	movslq	%eax, %rcx
	imulq	%rsi, %rcx
	leaq	0(,%rcx,4), %rsi
	movq	-152(%rbp), %rcx
	leaq	(%rsi,%rcx), %rdi
	movl	-936(%rbp), %ecx
	addl	$6, %ecx
	movslq	%ecx, %rcx
	movl	-884(%rbp), %esi
	movl	%esi, (%rdi,%rcx,4)
	movl	-936(%rbp), %ecx
	addl	$7, %ecx
	movslq	%ecx, %rsi
	movslq	%edx, %rcx
	imulq	%rsi, %rcx
	leaq	0(,%rcx,4), %rsi
	movq	-160(%rbp), %rcx
	addq	%rcx, %rsi
	movl	-936(%rbp), %ecx
	addl	$4, %ecx
	movslq	%ecx, %rcx
	movl	(%rsi,%rcx,4), %ecx
	movl	%ecx, -924(%rbp)
	movl	-936(%rbp), %ecx
	addl	$7, %ecx
	movslq	%ecx, %rsi
	movslq	%edx, %rcx
	imulq	%rsi, %rcx
	leaq	0(,%rcx,4), %rsi
	movq	-160(%rbp), %rcx
	addq	%rcx, %rsi
	movl	-936(%rbp), %ecx
	addl	$5, %ecx
	movslq	%ecx, %rcx
	movl	(%rsi,%rcx,4), %ecx
	movl	%ecx, -920(%rbp)
	movl	-936(%rbp), %ecx
	addl	$7, %ecx
	movslq	%ecx, %rsi
	movslq	%edx, %rcx
	imulq	%rsi, %rcx
	leaq	0(,%rcx,4), %rsi
	movq	-160(%rbp), %rcx
	addq	%rcx, %rsi
	movl	-936(%rbp), %ecx
	addl	$6, %ecx
	movslq	%ecx, %rcx
	movl	(%rsi,%rcx,4), %ecx
	movl	%ecx, -916(%rbp)
	movl	-936(%rbp), %ecx
	addl	$7, %ecx
	movslq	%ecx, %rsi
	movslq	%edx, %rcx
	imulq	%rsi, %rcx
	leaq	0(,%rcx,4), %rsi
	movq	-160(%rbp), %rcx
	addq	%rcx, %rsi
	movl	-936(%rbp), %ecx
	addl	$7, %ecx
	movslq	%ecx, %rcx
	movl	(%rsi,%rcx,4), %ecx
	movl	%ecx, -908(%rbp)
	movl	-936(%rbp), %ecx
	addl	$7, %ecx
	movslq	%ecx, %rsi
	movslq	%eax, %rcx
	imulq	%rsi, %rcx
	leaq	0(,%rcx,4), %rsi
	movq	-152(%rbp), %rcx
	leaq	(%rsi,%rcx), %rdi
	movl	-936(%rbp), %ecx
	addl	$4, %ecx
	movslq	%ecx, %rcx
	movl	-912(%rbp), %esi
	movl	%esi, (%rdi,%rcx,4)
	movl	-936(%rbp), %ecx
	addl	$7, %ecx
	movslq	%ecx, %rsi
	movslq	%eax, %rcx
	imulq	%rsi, %rcx
	leaq	0(,%rcx,4), %rsi
	movq	-152(%rbp), %rcx
	leaq	(%rsi,%rcx), %rdi
	movl	-936(%rbp), %ecx
	addl	$5, %ecx
	movslq	%ecx, %rcx
	movl	-896(%rbp), %esi
	movl	%esi, (%rdi,%rcx,4)
	movl	-936(%rbp), %ecx
	addl	$7, %ecx
	movslq	%ecx, %rsi
	movslq	%eax, %rcx
	imulq	%rsi, %rcx
	leaq	0(,%rcx,4), %rsi
	movq	-152(%rbp), %rcx
	leaq	(%rsi,%rcx), %rdi
	movl	-936(%rbp), %ecx
	addl	$6, %ecx
	movslq	%ecx, %rcx
	movl	-880(%rbp), %esi
	movl	%esi, (%rdi,%rcx,4)
	movl	-936(%rbp), %ecx
	addl	$4, %ecx
	movslq	%ecx, %rsi
	movslq	%eax, %rcx
	imulq	%rsi, %rcx
	leaq	0(,%rcx,4), %rsi
	movq	-152(%rbp), %rcx
	leaq	(%rsi,%rcx), %rdi
	movl	-936(%rbp), %ecx
	addl	$7, %ecx
	movslq	%ecx, %rcx
	movl	-924(%rbp), %esi
	movl	%esi, (%rdi,%rcx,4)
	movl	-936(%rbp), %ecx
	addl	$5, %ecx
	movslq	%ecx, %rsi
	movslq	%eax, %rcx
	imulq	%rsi, %rcx
	leaq	0(,%rcx,4), %rsi
	movq	-152(%rbp), %rcx
	leaq	(%rsi,%rcx), %rdi
	movl	-936(%rbp), %ecx
	addl	$7, %ecx
	movslq	%ecx, %rcx
	movl	-920(%rbp), %esi
	movl	%esi, (%rdi,%rcx,4)
	movl	-936(%rbp), %ecx
	addl	$6, %ecx
	movslq	%ecx, %rsi
	movslq	%eax, %rcx
	imulq	%rsi, %rcx
	leaq	0(,%rcx,4), %rsi
	movq	-152(%rbp), %rcx
	leaq	(%rsi,%rcx), %rdi
	movl	-936(%rbp), %ecx
	addl	$7, %ecx
	movslq	%ecx, %rcx
	movl	-916(%rbp), %esi
	movl	%esi, (%rdi,%rcx,4)
	movl	-936(%rbp), %ecx
	addl	$7, %ecx
	movslq	%ecx, %rsi
	movslq	%eax, %rcx
	imulq	%rsi, %rcx
	leaq	0(,%rcx,4), %rsi
	movq	-152(%rbp), %rcx
	leaq	(%rsi,%rcx), %rdi
	movl	-936(%rbp), %ecx
	addl	$7, %ecx
	movslq	%ecx, %rcx
	movl	-908(%rbp), %esi
	movl	%esi, (%rdi,%rcx,4)
	movl	$0, -876(%rbp)
	jmp	.L72
.L75:
	movl	$0, -872(%rbp)
	jmp	.L73
.L74:
	movl	-936(%rbp), %esi
	movl	-872(%rbp), %ecx
	addl	%esi, %ecx
	movslq	%ecx, %rsi
	movslq	%edx, %rcx
	imulq	%rsi, %rcx
	leaq	0(,%rcx,4), %rsi
	movq	-160(%rbp), %rcx
	leaq	(%rsi,%rcx), %r8
	movl	-936(%rbp), %esi
	movl	-876(%rbp), %ecx
	addl	%esi, %ecx
	leal	4(%rcx), %r10d
	movl	-936(%rbp), %esi
	movl	-876(%rbp), %ecx
	addl	%esi, %ecx
	addl	$4, %ecx
	movslq	%ecx, %rsi
	movslq	%eax, %rcx
	imulq	%rsi, %rcx
	leaq	0(,%rcx,4), %rsi
	movq	-152(%rbp), %rcx
	leaq	(%rsi,%rcx), %rdi
	movl	-936(%rbp), %esi
	movl	-872(%rbp), %ecx
	leal	(%rsi,%rcx), %r9d
	movslq	%r10d, %rcx
	movl	(%r8,%rcx,4), %esi
	movslq	%r9d, %rcx
	movl	%esi, (%rdi,%rcx,4)
	addl	$1, -872(%rbp)
.L73:
	cmpl	$3, -872(%rbp)
	jle	.L74
	addl	$1, -876(%rbp)
.L72:
	cmpl	$3, -876(%rbp)
	jle	.L75
	movl	-936(%rbp), %ecx
	movslq	%ecx, %rsi
	movslq	%edx, %rcx
	imulq	%rsi, %rcx
	leaq	0(,%rcx,4), %rsi
	movq	-160(%rbp), %rcx
	addq	%rcx, %rsi
	movl	-936(%rbp), %ecx
	movslq	%ecx, %rcx
	movl	(%rsi,%rcx,4), %ecx
	movl	%ecx, -924(%rbp)
	movl	-936(%rbp), %ecx
	movslq	%ecx, %rsi
	movslq	%edx, %rcx
	imulq	%rsi, %rcx
	leaq	0(,%rcx,4), %rsi
	movq	-160(%rbp), %rcx
	addq	%rcx, %rsi
	movl	-936(%rbp), %ecx
	addl	$1, %ecx
	movslq	%ecx, %rcx
	movl	(%rsi,%rcx,4), %ecx
	movl	%ecx, -920(%rbp)
	movl	-936(%rbp), %ecx
	movslq	%ecx, %rsi
	movslq	%edx, %rcx
	imulq	%rsi, %rcx
	leaq	0(,%rcx,4), %rsi
	movq	-160(%rbp), %rcx
	addq	%rcx, %rsi
	movl	-936(%rbp), %ecx
	addl	$2, %ecx
	movslq	%ecx, %rcx
	movl	(%rsi,%rcx,4), %ecx
	movl	%ecx, -916(%rbp)
	movl	-936(%rbp), %ecx
	movslq	%ecx, %rsi
	movslq	%edx, %rcx
	imulq	%rsi, %rcx
	leaq	0(,%rcx,4), %rsi
	movq	-160(%rbp), %rcx
	addq	%rcx, %rsi
	movl	-936(%rbp), %ecx
	addl	$3, %ecx
	movslq	%ecx, %rcx
	movl	(%rsi,%rcx,4), %ecx
	movl	%ecx, -912(%rbp)
	movl	-936(%rbp), %ecx
	addl	$1, %ecx
	movslq	%ecx, %rsi
	movslq	%edx, %rcx
	imulq	%rsi, %rcx
	leaq	0(,%rcx,4), %rsi
	movq	-160(%rbp), %rcx
	addq	%rcx, %rsi
	movl	-936(%rbp), %ecx
	movslq	%ecx, %rcx
	movl	(%rsi,%rcx,4), %ecx
	movl	%ecx, -908(%rbp)
	movl	-936(%rbp), %ecx
	addl	$1, %ecx
	movslq	%ecx, %rsi
	movslq	%edx, %rcx
	imulq	%rsi, %rcx
	leaq	0(,%rcx,4), %rsi
	movq	-160(%rbp), %rcx
	addq	%rcx, %rsi
	movl	-936(%rbp), %ecx
	addl	$1, %ecx
	movslq	%ecx, %rcx
	movl	(%rsi,%rcx,4), %ecx
	movl	%ecx, -904(%rbp)
	movl	-936(%rbp), %ecx
	addl	$1, %ecx
	movslq	%ecx, %rsi
	movslq	%edx, %rcx
	imulq	%rsi, %rcx
	leaq	0(,%rcx,4), %rsi
	movq	-160(%rbp), %rcx
	addq	%rcx, %rsi
	movl	-936(%rbp), %ecx
	addl	$2, %ecx
	movslq	%ecx, %rcx
	movl	(%rsi,%rcx,4), %ecx
	movl	%ecx, -900(%rbp)
	movl	-936(%rbp), %ecx
	addl	$1, %ecx
	movslq	%ecx, %rsi
	movslq	%edx, %rcx
	imulq	%rsi, %rcx
	leaq	0(,%rcx,4), %rsi
	movq	-160(%rbp), %rcx
	addq	%rcx, %rsi
	movl	-936(%rbp), %ecx
	addl	$3, %ecx
	movslq	%ecx, %rcx
	movl	(%rsi,%rcx,4), %ecx
	movl	%ecx, -896(%rbp)
	movl	-936(%rbp), %ecx
	addl	$2, %ecx
	movslq	%ecx, %rsi
	movslq	%edx, %rcx
	imulq	%rsi, %rcx
	leaq	0(,%rcx,4), %rsi
	movq	-160(%rbp), %rcx
	addq	%rcx, %rsi
	movl	-936(%rbp), %ecx
	movslq	%ecx, %rcx
	movl	(%rsi,%rcx,4), %ecx
	movl	%ecx, -892(%rbp)
	movl	-936(%rbp), %ecx
	addl	$2, %ecx
	movslq	%ecx, %rsi
	movslq	%edx, %rcx
	imulq	%rsi, %rcx
	leaq	0(,%rcx,4), %rsi
	movq	-160(%rbp), %rcx
	addq	%rcx, %rsi
	movl	-936(%rbp), %ecx
	addl	$1, %ecx
	movslq	%ecx, %rcx
	movl	(%rsi,%rcx,4), %ecx
	movl	%ecx, -888(%rbp)
	movl	-936(%rbp), %ecx
	addl	$2, %ecx
	movslq	%ecx, %rsi
	movslq	%edx, %rcx
	imulq	%rsi, %rcx
	leaq	0(,%rcx,4), %rsi
	movq	-160(%rbp), %rcx
	addq	%rcx, %rsi
	movl	-936(%rbp), %ecx
	addl	$2, %ecx
	movslq	%ecx, %rcx
	movl	(%rsi,%rcx,4), %ecx
	movl	%ecx, -884(%rbp)
	movl	-936(%rbp), %ecx
	addl	$2, %ecx
	movslq	%ecx, %rsi
	movslq	%edx, %rcx
	imulq	%rsi, %rcx
	leaq	0(,%rcx,4), %rsi
	movq	-160(%rbp), %rcx
	addq	%rcx, %rsi
	movl	-936(%rbp), %ecx
	addl	$3, %ecx
	movslq	%ecx, %rcx
	movl	(%rsi,%rcx,4), %ecx
	movl	%ecx, -880(%rbp)
	movl	-936(%rbp), %ecx
	movslq	%ecx, %rsi
	movslq	%eax, %rcx
	imulq	%rsi, %rcx
	leaq	0(,%rcx,4), %rsi
	movq	-152(%rbp), %rcx
	leaq	(%rsi,%rcx), %rdi
	movl	-936(%rbp), %ecx
	movslq	%ecx, %rcx
	movl	-924(%rbp), %esi
	movl	%esi, (%rdi,%rcx,4)
	movl	-936(%rbp), %ecx
	addl	$1, %ecx
	movslq	%ecx, %rsi
	movslq	%eax, %rcx
	imulq	%rsi, %rcx
	leaq	0(,%rcx,4), %rsi
	movq	-152(%rbp), %rcx
	leaq	(%rsi,%rcx), %rdi
	movl	-936(%rbp), %ecx
	movslq	%ecx, %rcx
	movl	-920(%rbp), %esi
	movl	%esi, (%rdi,%rcx,4)
	movl	-936(%rbp), %ecx
	addl	$2, %ecx
	movslq	%ecx, %rsi
	movslq	%eax, %rcx
	imulq	%rsi, %rcx
	leaq	0(,%rcx,4), %rsi
	movq	-152(%rbp), %rcx
	leaq	(%rsi,%rcx), %rdi
	movl	-936(%rbp), %ecx
	movslq	%ecx, %rcx
	movl	-916(%rbp), %esi
	movl	%esi, (%rdi,%rcx,4)
	movl	-936(%rbp), %ecx
	movslq	%ecx, %rsi
	movslq	%eax, %rcx
	imulq	%rsi, %rcx
	leaq	0(,%rcx,4), %rsi
	movq	-152(%rbp), %rcx
	leaq	(%rsi,%rcx), %rdi
	movl	-936(%rbp), %ecx
	addl	$1, %ecx
	movslq	%ecx, %rcx
	movl	-908(%rbp), %esi
	movl	%esi, (%rdi,%rcx,4)
	movl	-936(%rbp), %ecx
	addl	$1, %ecx
	movslq	%ecx, %rsi
	movslq	%eax, %rcx
	imulq	%rsi, %rcx
	leaq	0(,%rcx,4), %rsi
	movq	-152(%rbp), %rcx
	leaq	(%rsi,%rcx), %rdi
	movl	-936(%rbp), %ecx
	addl	$1, %ecx
	movslq	%ecx, %rcx
	movl	-904(%rbp), %esi
	movl	%esi, (%rdi,%rcx,4)
	movl	-936(%rbp), %ecx
	addl	$2, %ecx
	movslq	%ecx, %rsi
	movslq	%eax, %rcx
	imulq	%rsi, %rcx
	leaq	0(,%rcx,4), %rsi
	movq	-152(%rbp), %rcx
	leaq	(%rsi,%rcx), %rdi
	movl	-936(%rbp), %ecx
	addl	$1, %ecx
	movslq	%ecx, %rcx
	movl	-900(%rbp), %esi
	movl	%esi, (%rdi,%rcx,4)
	movl	-936(%rbp), %ecx
	movslq	%ecx, %rsi
	movslq	%eax, %rcx
	imulq	%rsi, %rcx
	leaq	0(,%rcx,4), %rsi
	movq	-152(%rbp), %rcx
	leaq	(%rsi,%rcx), %rdi
	movl	-936(%rbp), %ecx
	addl	$2, %ecx
	movslq	%ecx, %rcx
	movl	-892(%rbp), %esi
	movl	%esi, (%rdi,%rcx,4)
	movl	-936(%rbp), %ecx
	addl	$1, %ecx
	movslq	%ecx, %rsi
	movslq	%eax, %rcx
	imulq	%rsi, %rcx
	leaq	0(,%rcx,4), %rsi
	movq	-152(%rbp), %rcx
	leaq	(%rsi,%rcx), %rdi
	movl	-936(%rbp), %ecx
	addl	$2, %ecx
	movslq	%ecx, %rcx
	movl	-888(%rbp), %esi
	movl	%esi, (%rdi,%rcx,4)
	movl	-936(%rbp), %ecx
	addl	$2, %ecx
	movslq	%ecx, %rsi
	movslq	%eax, %rcx
	imulq	%rsi, %rcx
	leaq	0(,%rcx,4), %rsi
	movq	-152(%rbp), %rcx
	leaq	(%rsi,%rcx), %rdi
	movl	-936(%rbp), %ecx
	addl	$2, %ecx
	movslq	%ecx, %rcx
	movl	-884(%rbp), %esi
	movl	%esi, (%rdi,%rcx,4)
	movl	-936(%rbp), %ecx
	addl	$3, %ecx
	movslq	%ecx, %rsi
	movslq	%edx, %rcx
	imulq	%rsi, %rcx
	leaq	0(,%rcx,4), %rsi
	movq	-160(%rbp), %rcx
	addq	%rcx, %rsi
	movl	-936(%rbp), %ecx
	movslq	%ecx, %rcx
	movl	(%rsi,%rcx,4), %ecx
	movl	%ecx, -924(%rbp)
	movl	-936(%rbp), %ecx
	addl	$3, %ecx
	movslq	%ecx, %rsi
	movslq	%edx, %rcx
	imulq	%rsi, %rcx
	leaq	0(,%rcx,4), %rsi
	movq	-160(%rbp), %rcx
	addq	%rcx, %rsi
	movl	-936(%rbp), %ecx
	addl	$1, %ecx
	movslq	%ecx, %rcx
	movl	(%rsi,%rcx,4), %ecx
	movl	%ecx, -920(%rbp)
	movl	-936(%rbp), %ecx
	addl	$3, %ecx
	movslq	%ecx, %rsi
	movslq	%edx, %rcx
	imulq	%rsi, %rcx
	leaq	0(,%rcx,4), %rsi
	movq	-160(%rbp), %rcx
	addq	%rcx, %rsi
	movl	-936(%rbp), %ecx
	addl	$2, %ecx
	movslq	%ecx, %rcx
	movl	(%rsi,%rcx,4), %ecx
	movl	%ecx, -916(%rbp)
	movl	-936(%rbp), %ecx
	addl	$3, %ecx
	movslq	%ecx, %rcx
	movslq	%edx, %rdx
	imulq	%rcx, %rdx
	leaq	0(,%rdx,4), %rcx
	movq	-160(%rbp), %rdx
	addq	%rdx, %rcx
	movl	-936(%rbp), %edx
	addl	$3, %edx
	movslq	%edx, %rdx
	movl	(%rcx,%rdx,4), %edx
	movl	%edx, -908(%rbp)
	movl	-936(%rbp), %edx
	addl	$3, %edx
	movslq	%edx, %rcx
	movslq	%eax, %rdx
	imulq	%rcx, %rdx
	leaq	0(,%rdx,4), %rcx
	movq	-152(%rbp), %rdx
	leaq	(%rcx,%rdx), %rsi
	movl	-936(%rbp), %edx
	movslq	%edx, %rdx
	movl	-912(%rbp), %ecx
	movl	%ecx, (%rsi,%rdx,4)
	movl	-936(%rbp), %edx
	addl	$3, %edx
	movslq	%edx, %rcx
	movslq	%eax, %rdx
	imulq	%rcx, %rdx
	leaq	0(,%rdx,4), %rcx
	movq	-152(%rbp), %rdx
	leaq	(%rcx,%rdx), %rsi
	movl	-936(%rbp), %edx
	addl	$1, %edx
	movslq	%edx, %rdx
	movl	-896(%rbp), %ecx
	movl	%ecx, (%rsi,%rdx,4)
	movl	-936(%rbp), %edx
	addl	$3, %edx
	movslq	%edx, %rcx
	movslq	%eax, %rdx
	imulq	%rcx, %rdx
	leaq	0(,%rdx,4), %rcx
	movq	-152(%rbp), %rdx
	leaq	(%rcx,%rdx), %rsi
	movl	-936(%rbp), %edx
	addl	$2, %edx
	movslq	%edx, %rdx
	movl	-880(%rbp), %ecx
	movl	%ecx, (%rsi,%rdx,4)
	movl	-936(%rbp), %edx
	movslq	%edx, %rcx
	movslq	%eax, %rdx
	imulq	%rcx, %rdx
	leaq	0(,%rdx,4), %rcx
	movq	-152(%rbp), %rdx
	leaq	(%rcx,%rdx), %rsi
	movl	-936(%rbp), %edx
	addl	$3, %edx
	movslq	%edx, %rdx
	movl	-924(%rbp), %ecx
	movl	%ecx, (%rsi,%rdx,4)
	movl	-936(%rbp), %edx
	addl	$1, %edx
	movslq	%edx, %rcx
	movslq	%eax, %rdx
	imulq	%rcx, %rdx
	leaq	0(,%rdx,4), %rcx
	movq	-152(%rbp), %rdx
	leaq	(%rcx,%rdx), %rsi
	movl	-936(%rbp), %edx
	addl	$3, %edx
	movslq	%edx, %rdx
	movl	-920(%rbp), %ecx
	movl	%ecx, (%rsi,%rdx,4)
	movl	-936(%rbp), %edx
	addl	$2, %edx
	movslq	%edx, %rcx
	movslq	%eax, %rdx
	imulq	%rcx, %rdx
	leaq	0(,%rdx,4), %rcx
	movq	-152(%rbp), %rdx
	leaq	(%rcx,%rdx), %rsi
	movl	-936(%rbp), %edx
	addl	$3, %edx
	movslq	%edx, %rdx
	movl	-916(%rbp), %ecx
	movl	%ecx, (%rsi,%rdx,4)
	movl	-936(%rbp), %edx
	addl	$3, %edx
	movslq	%edx, %rdx
	cltq
	imulq	%rdx, %rax
	leaq	0(,%rax,4), %rdx
	movq	-152(%rbp), %rax
	leaq	(%rdx,%rax), %rcx
	movl	-936(%rbp), %eax
	addl	$3, %eax
	cltq
	movl	-908(%rbp), %edx
	movl	%edx, (%rcx,%rax,4)
	nop
	movl	-1584(%rbp), %eax
	movl	%eax, -868(%rbp)
	movl	-1580(%rbp), %eax
	movl	%eax, -864(%rbp)
	movq	-640(%rbp), %rax
	movq	%rax, -128(%rbp)
	movq	-632(%rbp), %rax
	movq	%rax, -120(%rbp)
	movl	$24, -860(%rbp)
	movl	-868(%rbp), %edx
	movslq	%edx, %rax
	subq	$1, %rax
	movq	%rax, -112(%rbp)
	movl	-864(%rbp), %eax
	movslq	%eax, %rcx
	subq	$1, %rcx
	movq	%rcx, -104(%rbp)
	movl	$0, -856(%rbp)
	jmp	.L76
.L79:
	movl	$0, -852(%rbp)
	jmp	.L77
.L78:
	movl	-860(%rbp), %esi
	movl	-852(%rbp), %ecx
	addl	%esi, %ecx
	addl	$4, %ecx
	movslq	%ecx, %rsi
	movslq	%edx, %rcx
	imulq	%rsi, %rcx
	leaq	0(,%rcx,4), %rsi
	movq	-128(%rbp), %rcx
	leaq	(%rsi,%rcx), %r8
	movl	-860(%rbp), %esi
	movl	-856(%rbp), %ecx
	leal	(%rsi,%rcx), %r10d
	movl	-860(%rbp), %esi
	movl	-856(%rbp), %ecx
	addl	%esi, %ecx
	movslq	%ecx, %rsi
	movslq	%eax, %rcx
	imulq	%rsi, %rcx
	leaq	0(,%rcx,4), %rsi
	movq	-120(%rbp), %rcx
	leaq	(%rsi,%rcx), %rdi
	movl	-860(%rbp), %esi
	movl	-852(%rbp), %ecx
	addl	%esi, %ecx
	leal	4(%rcx), %r9d
	movslq	%r10d, %rcx
	movl	(%r8,%rcx,4), %esi
	movslq	%r9d, %rcx
	movl	%esi, (%rdi,%rcx,4)
	addl	$1, -852(%rbp)
.L77:
	cmpl	$3, -852(%rbp)
	jle	.L78
	addl	$1, -856(%rbp)
.L76:
	cmpl	$3, -856(%rbp)
	jle	.L79
	movl	-860(%rbp), %ecx
	addl	$4, %ecx
	movslq	%ecx, %rsi
	movslq	%edx, %rcx
	imulq	%rsi, %rcx
	leaq	0(,%rcx,4), %rsi
	movq	-128(%rbp), %rcx
	addq	%rcx, %rsi
	movl	-860(%rbp), %ecx
	addl	$4, %ecx
	movslq	%ecx, %rcx
	movl	(%rsi,%rcx,4), %ecx
	movl	%ecx, -848(%rbp)
	movl	-860(%rbp), %ecx
	addl	$4, %ecx
	movslq	%ecx, %rsi
	movslq	%edx, %rcx
	imulq	%rsi, %rcx
	leaq	0(,%rcx,4), %rsi
	movq	-128(%rbp), %rcx
	addq	%rcx, %rsi
	movl	-860(%rbp), %ecx
	addl	$5, %ecx
	movslq	%ecx, %rcx
	movl	(%rsi,%rcx,4), %ecx
	movl	%ecx, -844(%rbp)
	movl	-860(%rbp), %ecx
	addl	$4, %ecx
	movslq	%ecx, %rsi
	movslq	%edx, %rcx
	imulq	%rsi, %rcx
	leaq	0(,%rcx,4), %rsi
	movq	-128(%rbp), %rcx
	addq	%rcx, %rsi
	movl	-860(%rbp), %ecx
	addl	$6, %ecx
	movslq	%ecx, %rcx
	movl	(%rsi,%rcx,4), %ecx
	movl	%ecx, -840(%rbp)
	movl	-860(%rbp), %ecx
	addl	$4, %ecx
	movslq	%ecx, %rsi
	movslq	%edx, %rcx
	imulq	%rsi, %rcx
	leaq	0(,%rcx,4), %rsi
	movq	-128(%rbp), %rcx
	addq	%rcx, %rsi
	movl	-860(%rbp), %ecx
	addl	$7, %ecx
	movslq	%ecx, %rcx
	movl	(%rsi,%rcx,4), %ecx
	movl	%ecx, -836(%rbp)
	movl	-860(%rbp), %ecx
	addl	$5, %ecx
	movslq	%ecx, %rsi
	movslq	%edx, %rcx
	imulq	%rsi, %rcx
	leaq	0(,%rcx,4), %rsi
	movq	-128(%rbp), %rcx
	addq	%rcx, %rsi
	movl	-860(%rbp), %ecx
	addl	$4, %ecx
	movslq	%ecx, %rcx
	movl	(%rsi,%rcx,4), %ecx
	movl	%ecx, -832(%rbp)
	movl	-860(%rbp), %ecx
	addl	$5, %ecx
	movslq	%ecx, %rsi
	movslq	%edx, %rcx
	imulq	%rsi, %rcx
	leaq	0(,%rcx,4), %rsi
	movq	-128(%rbp), %rcx
	addq	%rcx, %rsi
	movl	-860(%rbp), %ecx
	addl	$5, %ecx
	movslq	%ecx, %rcx
	movl	(%rsi,%rcx,4), %ecx
	movl	%ecx, -828(%rbp)
	movl	-860(%rbp), %ecx
	addl	$5, %ecx
	movslq	%ecx, %rsi
	movslq	%edx, %rcx
	imulq	%rsi, %rcx
	leaq	0(,%rcx,4), %rsi
	movq	-128(%rbp), %rcx
	addq	%rcx, %rsi
	movl	-860(%rbp), %ecx
	addl	$6, %ecx
	movslq	%ecx, %rcx
	movl	(%rsi,%rcx,4), %ecx
	movl	%ecx, -824(%rbp)
	movl	-860(%rbp), %ecx
	addl	$5, %ecx
	movslq	%ecx, %rsi
	movslq	%edx, %rcx
	imulq	%rsi, %rcx
	leaq	0(,%rcx,4), %rsi
	movq	-128(%rbp), %rcx
	addq	%rcx, %rsi
	movl	-860(%rbp), %ecx
	addl	$7, %ecx
	movslq	%ecx, %rcx
	movl	(%rsi,%rcx,4), %ecx
	movl	%ecx, -820(%rbp)
	movl	-860(%rbp), %ecx
	addl	$6, %ecx
	movslq	%ecx, %rsi
	movslq	%edx, %rcx
	imulq	%rsi, %rcx
	leaq	0(,%rcx,4), %rsi
	movq	-128(%rbp), %rcx
	addq	%rcx, %rsi
	movl	-860(%rbp), %ecx
	addl	$4, %ecx
	movslq	%ecx, %rcx
	movl	(%rsi,%rcx,4), %ecx
	movl	%ecx, -816(%rbp)
	movl	-860(%rbp), %ecx
	addl	$6, %ecx
	movslq	%ecx, %rsi
	movslq	%edx, %rcx
	imulq	%rsi, %rcx
	leaq	0(,%rcx,4), %rsi
	movq	-128(%rbp), %rcx
	addq	%rcx, %rsi
	movl	-860(%rbp), %ecx
	addl	$5, %ecx
	movslq	%ecx, %rcx
	movl	(%rsi,%rcx,4), %ecx
	movl	%ecx, -812(%rbp)
	movl	-860(%rbp), %ecx
	addl	$6, %ecx
	movslq	%ecx, %rsi
	movslq	%edx, %rcx
	imulq	%rsi, %rcx
	leaq	0(,%rcx,4), %rsi
	movq	-128(%rbp), %rcx
	addq	%rcx, %rsi
	movl	-860(%rbp), %ecx
	addl	$6, %ecx
	movslq	%ecx, %rcx
	movl	(%rsi,%rcx,4), %ecx
	movl	%ecx, -808(%rbp)
	movl	-860(%rbp), %ecx
	addl	$6, %ecx
	movslq	%ecx, %rsi
	movslq	%edx, %rcx
	imulq	%rsi, %rcx
	leaq	0(,%rcx,4), %rsi
	movq	-128(%rbp), %rcx
	addq	%rcx, %rsi
	movl	-860(%rbp), %ecx
	addl	$7, %ecx
	movslq	%ecx, %rcx
	movl	(%rsi,%rcx,4), %ecx
	movl	%ecx, -804(%rbp)
	movl	-860(%rbp), %ecx
	addl	$4, %ecx
	movslq	%ecx, %rsi
	movslq	%eax, %rcx
	imulq	%rsi, %rcx
	leaq	0(,%rcx,4), %rsi
	movq	-120(%rbp), %rcx
	leaq	(%rsi,%rcx), %rdi
	movl	-860(%rbp), %ecx
	addl	$4, %ecx
	movslq	%ecx, %rcx
	movl	-848(%rbp), %esi
	movl	%esi, (%rdi,%rcx,4)
	movl	-860(%rbp), %ecx
	addl	$5, %ecx
	movslq	%ecx, %rsi
	movslq	%eax, %rcx
	imulq	%rsi, %rcx
	leaq	0(,%rcx,4), %rsi
	movq	-120(%rbp), %rcx
	leaq	(%rsi,%rcx), %rdi
	movl	-860(%rbp), %ecx
	addl	$4, %ecx
	movslq	%ecx, %rcx
	movl	-844(%rbp), %esi
	movl	%esi, (%rdi,%rcx,4)
	movl	-860(%rbp), %ecx
	addl	$6, %ecx
	movslq	%ecx, %rsi
	movslq	%eax, %rcx
	imulq	%rsi, %rcx
	leaq	0(,%rcx,4), %rsi
	movq	-120(%rbp), %rcx
	leaq	(%rsi,%rcx), %rdi
	movl	-860(%rbp), %ecx
	addl	$4, %ecx
	movslq	%ecx, %rcx
	movl	-840(%rbp), %esi
	movl	%esi, (%rdi,%rcx,4)
	movl	-860(%rbp), %ecx
	addl	$4, %ecx
	movslq	%ecx, %rsi
	movslq	%eax, %rcx
	imulq	%rsi, %rcx
	leaq	0(,%rcx,4), %rsi
	movq	-120(%rbp), %rcx
	leaq	(%rsi,%rcx), %rdi
	movl	-860(%rbp), %ecx
	addl	$5, %ecx
	movslq	%ecx, %rcx
	movl	-832(%rbp), %esi
	movl	%esi, (%rdi,%rcx,4)
	movl	-860(%rbp), %ecx
	addl	$5, %ecx
	movslq	%ecx, %rsi
	movslq	%eax, %rcx
	imulq	%rsi, %rcx
	leaq	0(,%rcx,4), %rsi
	movq	-120(%rbp), %rcx
	leaq	(%rsi,%rcx), %rdi
	movl	-860(%rbp), %ecx
	addl	$5, %ecx
	movslq	%ecx, %rcx
	movl	-828(%rbp), %esi
	movl	%esi, (%rdi,%rcx,4)
	movl	-860(%rbp), %ecx
	addl	$6, %ecx
	movslq	%ecx, %rsi
	movslq	%eax, %rcx
	imulq	%rsi, %rcx
	leaq	0(,%rcx,4), %rsi
	movq	-120(%rbp), %rcx
	leaq	(%rsi,%rcx), %rdi
	movl	-860(%rbp), %ecx
	addl	$5, %ecx
	movslq	%ecx, %rcx
	movl	-824(%rbp), %esi
	movl	%esi, (%rdi,%rcx,4)
	movl	-860(%rbp), %ecx
	addl	$4, %ecx
	movslq	%ecx, %rsi
	movslq	%eax, %rcx
	imulq	%rsi, %rcx
	leaq	0(,%rcx,4), %rsi
	movq	-120(%rbp), %rcx
	leaq	(%rsi,%rcx), %rdi
	movl	-860(%rbp), %ecx
	addl	$6, %ecx
	movslq	%ecx, %rcx
	movl	-816(%rbp), %esi
	movl	%esi, (%rdi,%rcx,4)
	movl	-860(%rbp), %ecx
	addl	$5, %ecx
	movslq	%ecx, %rsi
	movslq	%eax, %rcx
	imulq	%rsi, %rcx
	leaq	0(,%rcx,4), %rsi
	movq	-120(%rbp), %rcx
	leaq	(%rsi,%rcx), %rdi
	movl	-860(%rbp), %ecx
	addl	$6, %ecx
	movslq	%ecx, %rcx
	movl	-812(%rbp), %esi
	movl	%esi, (%rdi,%rcx,4)
	movl	-860(%rbp), %ecx
	addl	$6, %ecx
	movslq	%ecx, %rsi
	movslq	%eax, %rcx
	imulq	%rsi, %rcx
	leaq	0(,%rcx,4), %rsi
	movq	-120(%rbp), %rcx
	leaq	(%rsi,%rcx), %rdi
	movl	-860(%rbp), %ecx
	addl	$6, %ecx
	movslq	%ecx, %rcx
	movl	-808(%rbp), %esi
	movl	%esi, (%rdi,%rcx,4)
	movl	-860(%rbp), %ecx
	addl	$7, %ecx
	movslq	%ecx, %rsi
	movslq	%edx, %rcx
	imulq	%rsi, %rcx
	leaq	0(,%rcx,4), %rsi
	movq	-128(%rbp), %rcx
	addq	%rcx, %rsi
	movl	-860(%rbp), %ecx
	addl	$4, %ecx
	movslq	%ecx, %rcx
	movl	(%rsi,%rcx,4), %ecx
	movl	%ecx, -848(%rbp)
	movl	-860(%rbp), %ecx
	addl	$7, %ecx
	movslq	%ecx, %rsi
	movslq	%edx, %rcx
	imulq	%rsi, %rcx
	leaq	0(,%rcx,4), %rsi
	movq	-128(%rbp), %rcx
	addq	%rcx, %rsi
	movl	-860(%rbp), %ecx
	addl	$5, %ecx
	movslq	%ecx, %rcx
	movl	(%rsi,%rcx,4), %ecx
	movl	%ecx, -844(%rbp)
	movl	-860(%rbp), %ecx
	addl	$7, %ecx
	movslq	%ecx, %rsi
	movslq	%edx, %rcx
	imulq	%rsi, %rcx
	leaq	0(,%rcx,4), %rsi
	movq	-128(%rbp), %rcx
	addq	%rcx, %rsi
	movl	-860(%rbp), %ecx
	addl	$6, %ecx
	movslq	%ecx, %rcx
	movl	(%rsi,%rcx,4), %ecx
	movl	%ecx, -840(%rbp)
	movl	-860(%rbp), %ecx
	addl	$7, %ecx
	movslq	%ecx, %rsi
	movslq	%edx, %rcx
	imulq	%rsi, %rcx
	leaq	0(,%rcx,4), %rsi
	movq	-128(%rbp), %rcx
	addq	%rcx, %rsi
	movl	-860(%rbp), %ecx
	addl	$7, %ecx
	movslq	%ecx, %rcx
	movl	(%rsi,%rcx,4), %ecx
	movl	%ecx, -832(%rbp)
	movl	-860(%rbp), %ecx
	addl	$7, %ecx
	movslq	%ecx, %rsi
	movslq	%eax, %rcx
	imulq	%rsi, %rcx
	leaq	0(,%rcx,4), %rsi
	movq	-120(%rbp), %rcx
	leaq	(%rsi,%rcx), %rdi
	movl	-860(%rbp), %ecx
	addl	$4, %ecx
	movslq	%ecx, %rcx
	movl	-836(%rbp), %esi
	movl	%esi, (%rdi,%rcx,4)
	movl	-860(%rbp), %ecx
	addl	$7, %ecx
	movslq	%ecx, %rsi
	movslq	%eax, %rcx
	imulq	%rsi, %rcx
	leaq	0(,%rcx,4), %rsi
	movq	-120(%rbp), %rcx
	leaq	(%rsi,%rcx), %rdi
	movl	-860(%rbp), %ecx
	addl	$5, %ecx
	movslq	%ecx, %rcx
	movl	-820(%rbp), %esi
	movl	%esi, (%rdi,%rcx,4)
	movl	-860(%rbp), %ecx
	addl	$7, %ecx
	movslq	%ecx, %rsi
	movslq	%eax, %rcx
	imulq	%rsi, %rcx
	leaq	0(,%rcx,4), %rsi
	movq	-120(%rbp), %rcx
	leaq	(%rsi,%rcx), %rdi
	movl	-860(%rbp), %ecx
	addl	$6, %ecx
	movslq	%ecx, %rcx
	movl	-804(%rbp), %esi
	movl	%esi, (%rdi,%rcx,4)
	movl	-860(%rbp), %ecx
	addl	$4, %ecx
	movslq	%ecx, %rsi
	movslq	%eax, %rcx
	imulq	%rsi, %rcx
	leaq	0(,%rcx,4), %rsi
	movq	-120(%rbp), %rcx
	leaq	(%rsi,%rcx), %rdi
	movl	-860(%rbp), %ecx
	addl	$7, %ecx
	movslq	%ecx, %rcx
	movl	-848(%rbp), %esi
	movl	%esi, (%rdi,%rcx,4)
	movl	-860(%rbp), %ecx
	addl	$5, %ecx
	movslq	%ecx, %rsi
	movslq	%eax, %rcx
	imulq	%rsi, %rcx
	leaq	0(,%rcx,4), %rsi
	movq	-120(%rbp), %rcx
	leaq	(%rsi,%rcx), %rdi
	movl	-860(%rbp), %ecx
	addl	$7, %ecx
	movslq	%ecx, %rcx
	movl	-844(%rbp), %esi
	movl	%esi, (%rdi,%rcx,4)
	movl	-860(%rbp), %ecx
	addl	$6, %ecx
	movslq	%ecx, %rsi
	movslq	%eax, %rcx
	imulq	%rsi, %rcx
	leaq	0(,%rcx,4), %rsi
	movq	-120(%rbp), %rcx
	leaq	(%rsi,%rcx), %rdi
	movl	-860(%rbp), %ecx
	addl	$7, %ecx
	movslq	%ecx, %rcx
	movl	-840(%rbp), %esi
	movl	%esi, (%rdi,%rcx,4)
	movl	-860(%rbp), %ecx
	addl	$7, %ecx
	movslq	%ecx, %rsi
	movslq	%eax, %rcx
	imulq	%rsi, %rcx
	leaq	0(,%rcx,4), %rsi
	movq	-120(%rbp), %rcx
	leaq	(%rsi,%rcx), %rdi
	movl	-860(%rbp), %ecx
	addl	$7, %ecx
	movslq	%ecx, %rcx
	movl	-832(%rbp), %esi
	movl	%esi, (%rdi,%rcx,4)
	movl	$0, -800(%rbp)
	jmp	.L80
.L83:
	movl	$0, -796(%rbp)
	jmp	.L81
.L82:
	movl	-860(%rbp), %esi
	movl	-796(%rbp), %ecx
	addl	%esi, %ecx
	movslq	%ecx, %rsi
	movslq	%edx, %rcx
	imulq	%rsi, %rcx
	leaq	0(,%rcx,4), %rsi
	movq	-128(%rbp), %rcx
	leaq	(%rsi,%rcx), %r8
	movl	-860(%rbp), %esi
	movl	-800(%rbp), %ecx
	addl	%esi, %ecx
	leal	4(%rcx), %r10d
	movl	-860(%rbp), %esi
	movl	-800(%rbp), %ecx
	addl	%esi, %ecx
	addl	$4, %ecx
	movslq	%ecx, %rsi
	movslq	%eax, %rcx
	imulq	%rsi, %rcx
	leaq	0(,%rcx,4), %rsi
	movq	-120(%rbp), %rcx
	leaq	(%rsi,%rcx), %rdi
	movl	-860(%rbp), %esi
	movl	-796(%rbp), %ecx
	leal	(%rsi,%rcx), %r9d
	movslq	%r10d, %rcx
	movl	(%r8,%rcx,4), %esi
	movslq	%r9d, %rcx
	movl	%esi, (%rdi,%rcx,4)
	addl	$1, -796(%rbp)
.L81:
	cmpl	$3, -796(%rbp)
	jle	.L82
	addl	$1, -800(%rbp)
.L80:
	cmpl	$3, -800(%rbp)
	jle	.L83
	movl	-860(%rbp), %ecx
	movslq	%ecx, %rsi
	movslq	%edx, %rcx
	imulq	%rsi, %rcx
	leaq	0(,%rcx,4), %rsi
	movq	-128(%rbp), %rcx
	addq	%rcx, %rsi
	movl	-860(%rbp), %ecx
	movslq	%ecx, %rcx
	movl	(%rsi,%rcx,4), %ecx
	movl	%ecx, -848(%rbp)
	movl	-860(%rbp), %ecx
	movslq	%ecx, %rsi
	movslq	%edx, %rcx
	imulq	%rsi, %rcx
	leaq	0(,%rcx,4), %rsi
	movq	-128(%rbp), %rcx
	addq	%rcx, %rsi
	movl	-860(%rbp), %ecx
	addl	$1, %ecx
	movslq	%ecx, %rcx
	movl	(%rsi,%rcx,4), %ecx
	movl	%ecx, -844(%rbp)
	movl	-860(%rbp), %ecx
	movslq	%ecx, %rsi
	movslq	%edx, %rcx
	imulq	%rsi, %rcx
	leaq	0(,%rcx,4), %rsi
	movq	-128(%rbp), %rcx
	addq	%rcx, %rsi
	movl	-860(%rbp), %ecx
	addl	$2, %ecx
	movslq	%ecx, %rcx
	movl	(%rsi,%rcx,4), %ecx
	movl	%ecx, -840(%rbp)
	movl	-860(%rbp), %ecx
	movslq	%ecx, %rsi
	movslq	%edx, %rcx
	imulq	%rsi, %rcx
	leaq	0(,%rcx,4), %rsi
	movq	-128(%rbp), %rcx
	addq	%rcx, %rsi
	movl	-860(%rbp), %ecx
	addl	$3, %ecx
	movslq	%ecx, %rcx
	movl	(%rsi,%rcx,4), %ecx
	movl	%ecx, -836(%rbp)
	movl	-860(%rbp), %ecx
	addl	$1, %ecx
	movslq	%ecx, %rsi
	movslq	%edx, %rcx
	imulq	%rsi, %rcx
	leaq	0(,%rcx,4), %rsi
	movq	-128(%rbp), %rcx
	addq	%rcx, %rsi
	movl	-860(%rbp), %ecx
	movslq	%ecx, %rcx
	movl	(%rsi,%rcx,4), %ecx
	movl	%ecx, -832(%rbp)
	movl	-860(%rbp), %ecx
	addl	$1, %ecx
	movslq	%ecx, %rsi
	movslq	%edx, %rcx
	imulq	%rsi, %rcx
	leaq	0(,%rcx,4), %rsi
	movq	-128(%rbp), %rcx
	addq	%rcx, %rsi
	movl	-860(%rbp), %ecx
	addl	$1, %ecx
	movslq	%ecx, %rcx
	movl	(%rsi,%rcx,4), %ecx
	movl	%ecx, -828(%rbp)
	movl	-860(%rbp), %ecx
	addl	$1, %ecx
	movslq	%ecx, %rsi
	movslq	%edx, %rcx
	imulq	%rsi, %rcx
	leaq	0(,%rcx,4), %rsi
	movq	-128(%rbp), %rcx
	addq	%rcx, %rsi
	movl	-860(%rbp), %ecx
	addl	$2, %ecx
	movslq	%ecx, %rcx
	movl	(%rsi,%rcx,4), %ecx
	movl	%ecx, -824(%rbp)
	movl	-860(%rbp), %ecx
	addl	$1, %ecx
	movslq	%ecx, %rsi
	movslq	%edx, %rcx
	imulq	%rsi, %rcx
	leaq	0(,%rcx,4), %rsi
	movq	-128(%rbp), %rcx
	addq	%rcx, %rsi
	movl	-860(%rbp), %ecx
	addl	$3, %ecx
	movslq	%ecx, %rcx
	movl	(%rsi,%rcx,4), %ecx
	movl	%ecx, -820(%rbp)
	movl	-860(%rbp), %ecx
	addl	$2, %ecx
	movslq	%ecx, %rsi
	movslq	%edx, %rcx
	imulq	%rsi, %rcx
	leaq	0(,%rcx,4), %rsi
	movq	-128(%rbp), %rcx
	addq	%rcx, %rsi
	movl	-860(%rbp), %ecx
	movslq	%ecx, %rcx
	movl	(%rsi,%rcx,4), %ecx
	movl	%ecx, -816(%rbp)
	movl	-860(%rbp), %ecx
	addl	$2, %ecx
	movslq	%ecx, %rsi
	movslq	%edx, %rcx
	imulq	%rsi, %rcx
	leaq	0(,%rcx,4), %rsi
	movq	-128(%rbp), %rcx
	addq	%rcx, %rsi
	movl	-860(%rbp), %ecx
	addl	$1, %ecx
	movslq	%ecx, %rcx
	movl	(%rsi,%rcx,4), %ecx
	movl	%ecx, -812(%rbp)
	movl	-860(%rbp), %ecx
	addl	$2, %ecx
	movslq	%ecx, %rsi
	movslq	%edx, %rcx
	imulq	%rsi, %rcx
	leaq	0(,%rcx,4), %rsi
	movq	-128(%rbp), %rcx
	addq	%rcx, %rsi
	movl	-860(%rbp), %ecx
	addl	$2, %ecx
	movslq	%ecx, %rcx
	movl	(%rsi,%rcx,4), %ecx
	movl	%ecx, -808(%rbp)
	movl	-860(%rbp), %ecx
	addl	$2, %ecx
	movslq	%ecx, %rsi
	movslq	%edx, %rcx
	imulq	%rsi, %rcx
	leaq	0(,%rcx,4), %rsi
	movq	-128(%rbp), %rcx
	addq	%rcx, %rsi
	movl	-860(%rbp), %ecx
	addl	$3, %ecx
	movslq	%ecx, %rcx
	movl	(%rsi,%rcx,4), %ecx
	movl	%ecx, -804(%rbp)
	movl	-860(%rbp), %ecx
	movslq	%ecx, %rsi
	movslq	%eax, %rcx
	imulq	%rsi, %rcx
	leaq	0(,%rcx,4), %rsi
	movq	-120(%rbp), %rcx
	leaq	(%rsi,%rcx), %rdi
	movl	-860(%rbp), %ecx
	movslq	%ecx, %rcx
	movl	-848(%rbp), %esi
	movl	%esi, (%rdi,%rcx,4)
	movl	-860(%rbp), %ecx
	addl	$1, %ecx
	movslq	%ecx, %rsi
	movslq	%eax, %rcx
	imulq	%rsi, %rcx
	leaq	0(,%rcx,4), %rsi
	movq	-120(%rbp), %rcx
	leaq	(%rsi,%rcx), %rdi
	movl	-860(%rbp), %ecx
	movslq	%ecx, %rcx
	movl	-844(%rbp), %esi
	movl	%esi, (%rdi,%rcx,4)
	movl	-860(%rbp), %ecx
	addl	$2, %ecx
	movslq	%ecx, %rsi
	movslq	%eax, %rcx
	imulq	%rsi, %rcx
	leaq	0(,%rcx,4), %rsi
	movq	-120(%rbp), %rcx
	leaq	(%rsi,%rcx), %rdi
	movl	-860(%rbp), %ecx
	movslq	%ecx, %rcx
	movl	-840(%rbp), %esi
	movl	%esi, (%rdi,%rcx,4)
	movl	-860(%rbp), %ecx
	movslq	%ecx, %rsi
	movslq	%eax, %rcx
	imulq	%rsi, %rcx
	leaq	0(,%rcx,4), %rsi
	movq	-120(%rbp), %rcx
	leaq	(%rsi,%rcx), %rdi
	movl	-860(%rbp), %ecx
	addl	$1, %ecx
	movslq	%ecx, %rcx
	movl	-832(%rbp), %esi
	movl	%esi, (%rdi,%rcx,4)
	movl	-860(%rbp), %ecx
	addl	$1, %ecx
	movslq	%ecx, %rsi
	movslq	%eax, %rcx
	imulq	%rsi, %rcx
	leaq	0(,%rcx,4), %rsi
	movq	-120(%rbp), %rcx
	leaq	(%rsi,%rcx), %rdi
	movl	-860(%rbp), %ecx
	addl	$1, %ecx
	movslq	%ecx, %rcx
	movl	-828(%rbp), %esi
	movl	%esi, (%rdi,%rcx,4)
	movl	-860(%rbp), %ecx
	addl	$2, %ecx
	movslq	%ecx, %rsi
	movslq	%eax, %rcx
	imulq	%rsi, %rcx
	leaq	0(,%rcx,4), %rsi
	movq	-120(%rbp), %rcx
	leaq	(%rsi,%rcx), %rdi
	movl	-860(%rbp), %ecx
	addl	$1, %ecx
	movslq	%ecx, %rcx
	movl	-824(%rbp), %esi
	movl	%esi, (%rdi,%rcx,4)
	movl	-860(%rbp), %ecx
	movslq	%ecx, %rsi
	movslq	%eax, %rcx
	imulq	%rsi, %rcx
	leaq	0(,%rcx,4), %rsi
	movq	-120(%rbp), %rcx
	leaq	(%rsi,%rcx), %rdi
	movl	-860(%rbp), %ecx
	addl	$2, %ecx
	movslq	%ecx, %rcx
	movl	-816(%rbp), %esi
	movl	%esi, (%rdi,%rcx,4)
	movl	-860(%rbp), %ecx
	addl	$1, %ecx
	movslq	%ecx, %rsi
	movslq	%eax, %rcx
	imulq	%rsi, %rcx
	leaq	0(,%rcx,4), %rsi
	movq	-120(%rbp), %rcx
	leaq	(%rsi,%rcx), %rdi
	movl	-860(%rbp), %ecx
	addl	$2, %ecx
	movslq	%ecx, %rcx
	movl	-812(%rbp), %esi
	movl	%esi, (%rdi,%rcx,4)
	movl	-860(%rbp), %ecx
	addl	$2, %ecx
	movslq	%ecx, %rsi
	movslq	%eax, %rcx
	imulq	%rsi, %rcx
	leaq	0(,%rcx,4), %rsi
	movq	-120(%rbp), %rcx
	leaq	(%rsi,%rcx), %rdi
	movl	-860(%rbp), %ecx
	addl	$2, %ecx
	movslq	%ecx, %rcx
	movl	-808(%rbp), %esi
	movl	%esi, (%rdi,%rcx,4)
	movl	-860(%rbp), %ecx
	addl	$3, %ecx
	movslq	%ecx, %rsi
	movslq	%edx, %rcx
	imulq	%rsi, %rcx
	leaq	0(,%rcx,4), %rsi
	movq	-128(%rbp), %rcx
	addq	%rcx, %rsi
	movl	-860(%rbp), %ecx
	movslq	%ecx, %rcx
	movl	(%rsi,%rcx,4), %ecx
	movl	%ecx, -848(%rbp)
	movl	-860(%rbp), %ecx
	addl	$3, %ecx
	movslq	%ecx, %rsi
	movslq	%edx, %rcx
	imulq	%rsi, %rcx
	leaq	0(,%rcx,4), %rsi
	movq	-128(%rbp), %rcx
	addq	%rcx, %rsi
	movl	-860(%rbp), %ecx
	addl	$1, %ecx
	movslq	%ecx, %rcx
	movl	(%rsi,%rcx,4), %ecx
	movl	%ecx, -844(%rbp)
	movl	-860(%rbp), %ecx
	addl	$3, %ecx
	movslq	%ecx, %rsi
	movslq	%edx, %rcx
	imulq	%rsi, %rcx
	leaq	0(,%rcx,4), %rsi
	movq	-128(%rbp), %rcx
	addq	%rcx, %rsi
	movl	-860(%rbp), %ecx
	addl	$2, %ecx
	movslq	%ecx, %rcx
	movl	(%rsi,%rcx,4), %ecx
	movl	%ecx, -840(%rbp)
	movl	-860(%rbp), %ecx
	addl	$3, %ecx
	movslq	%ecx, %rcx
	movslq	%edx, %rdx
	imulq	%rcx, %rdx
	leaq	0(,%rdx,4), %rcx
	movq	-128(%rbp), %rdx
	addq	%rdx, %rcx
	movl	-860(%rbp), %edx
	addl	$3, %edx
	movslq	%edx, %rdx
	movl	(%rcx,%rdx,4), %edx
	movl	%edx, -832(%rbp)
	movl	-860(%rbp), %edx
	addl	$3, %edx
	movslq	%edx, %rcx
	movslq	%eax, %rdx
	imulq	%rcx, %rdx
	leaq	0(,%rdx,4), %rcx
	movq	-120(%rbp), %rdx
	leaq	(%rcx,%rdx), %rsi
	movl	-860(%rbp), %edx
	movslq	%edx, %rdx
	movl	-836(%rbp), %ecx
	movl	%ecx, (%rsi,%rdx,4)
	movl	-860(%rbp), %edx
	addl	$3, %edx
	movslq	%edx, %rcx
	movslq	%eax, %rdx
	imulq	%rcx, %rdx
	leaq	0(,%rdx,4), %rcx
	movq	-120(%rbp), %rdx
	leaq	(%rcx,%rdx), %rsi
	movl	-860(%rbp), %edx
	addl	$1, %edx
	movslq	%edx, %rdx
	movl	-820(%rbp), %ecx
	movl	%ecx, (%rsi,%rdx,4)
	movl	-860(%rbp), %edx
	addl	$3, %edx
	movslq	%edx, %rcx
	movslq	%eax, %rdx
	imulq	%rcx, %rdx
	leaq	0(,%rdx,4), %rcx
	movq	-120(%rbp), %rdx
	leaq	(%rcx,%rdx), %rsi
	movl	-860(%rbp), %edx
	addl	$2, %edx
	movslq	%edx, %rdx
	movl	-804(%rbp), %ecx
	movl	%ecx, (%rsi,%rdx,4)
	movl	-860(%rbp), %edx
	movslq	%edx, %rcx
	movslq	%eax, %rdx
	imulq	%rcx, %rdx
	leaq	0(,%rdx,4), %rcx
	movq	-120(%rbp), %rdx
	leaq	(%rcx,%rdx), %rsi
	movl	-860(%rbp), %edx
	addl	$3, %edx
	movslq	%edx, %rdx
	movl	-848(%rbp), %ecx
	movl	%ecx, (%rsi,%rdx,4)
	movl	-860(%rbp), %edx
	addl	$1, %edx
	movslq	%edx, %rcx
	movslq	%eax, %rdx
	imulq	%rcx, %rdx
	leaq	0(,%rdx,4), %rcx
	movq	-120(%rbp), %rdx
	leaq	(%rcx,%rdx), %rsi
	movl	-860(%rbp), %edx
	addl	$3, %edx
	movslq	%edx, %rdx
	movl	-844(%rbp), %ecx
	movl	%ecx, (%rsi,%rdx,4)
	movl	-860(%rbp), %edx
	addl	$2, %edx
	movslq	%edx, %rcx
	movslq	%eax, %rdx
	imulq	%rcx, %rdx
	leaq	0(,%rdx,4), %rcx
	movq	-120(%rbp), %rdx
	leaq	(%rcx,%rdx), %rsi
	movl	-860(%rbp), %edx
	addl	$3, %edx
	movslq	%edx, %rdx
	movl	-840(%rbp), %ecx
	movl	%ecx, (%rsi,%rdx,4)
	movl	-860(%rbp), %edx
	addl	$3, %edx
	movslq	%edx, %rdx
	cltq
	imulq	%rdx, %rax
	leaq	0(,%rax,4), %rdx
	movq	-120(%rbp), %rax
	leaq	(%rdx,%rax), %rcx
	movl	-860(%rbp), %eax
	addl	$3, %eax
	cltq
	movl	-832(%rbp), %edx
	movl	%edx, (%rcx,%rax,4)
	nop
	nop
	jmp	.L2
.L3:
	cmpl	$64, -1588(%rbp)
	jne	.L2
	cmpl	$64, -1592(%rbp)
	jne	.L2
	movl	-1588(%rbp), %eax
	movl	%eax, -792(%rbp)
	movl	-1592(%rbp), %eax
	movl	%eax, -788(%rbp)
	movq	-1600(%rbp), %rax
	movq	%rax, -96(%rbp)
	movq	-1608(%rbp), %rax
	movq	%rax, -88(%rbp)
	movl	-792(%rbp), %eax
	cltq
	subq	$1, %rax
	movq	%rax, -80(%rbp)
	movl	-788(%rbp), %eax
	cltq
	subq	$1, %rax
	movq	%rax, -72(%rbp)
	movl	$0, -784(%rbp)
	jmp	.L85
.L94:
	movl	$0, -780(%rbp)
	jmp	.L86
.L93:
	movl	-784(%rbp), %eax
	cmpl	-780(%rbp), %eax
	je	.L105
	movl	-784(%rbp), %eax
	leal	0(,%rax,8), %edx
	movl	-780(%rbp), %eax
	leal	0(,%rax,8), %ecx
	movl	-780(%rbp), %eax
	leal	0(,%rax,8), %esi
	movl	-784(%rbp), %eax
	leal	0(,%rax,8), %edi
	movl	-792(%rbp), %eax
	movl	%eax, -776(%rbp)
	movl	-788(%rbp), %eax
	movl	%eax, -772(%rbp)
	movq	-96(%rbp), %rax
	movq	%rax, -64(%rbp)
	movq	-88(%rbp), %rax
	movq	%rax, -56(%rbp)
	movl	%edi, -768(%rbp)
	movl	%esi, -764(%rbp)
	movl	%ecx, -760(%rbp)
	movl	%edx, -756(%rbp)
	movl	$8, -752(%rbp)
	movl	$8, -748(%rbp)
	movl	-776(%rbp), %eax
	movslq	%eax, %rdx
	subq	$1, %rdx
	movq	%rdx, -48(%rbp)
	movl	-772(%rbp), %edx
	movslq	%edx, %rcx
	subq	$1, %rcx
	movq	%rcx, -40(%rbp)
	movl	$0, -744(%rbp)
	jmp	.L89
.L92:
	movl	$0, -740(%rbp)
	jmp	.L90
.L91:
	movl	-768(%rbp), %esi
	movl	-744(%rbp), %ecx
	addl	%esi, %ecx
	movslq	%ecx, %rsi
	movslq	%eax, %rcx
	imulq	%rsi, %rcx
	leaq	0(,%rcx,4), %rsi
	movq	-64(%rbp), %rcx
	leaq	(%rsi,%rcx), %r8
	movl	-764(%rbp), %esi
	movl	-740(%rbp), %ecx
	leal	(%rsi,%rcx), %r10d
	movl	-760(%rbp), %esi
	movl	-740(%rbp), %ecx
	addl	%esi, %ecx
	movslq	%ecx, %rsi
	movslq	%edx, %rcx
	imulq	%rsi, %rcx
	leaq	0(,%rcx,4), %rsi
	movq	-56(%rbp), %rcx
	leaq	(%rsi,%rcx), %rdi
	movl	-768(%rbp), %esi
	movl	-744(%rbp), %ecx
	leal	(%rsi,%rcx), %r9d
	movslq	%r10d, %rcx
	movl	(%r8,%rcx,4), %esi
	movslq	%r9d, %rcx
	movl	%esi, (%rdi,%rcx,4)
	addl	$1, -740(%rbp)
.L90:
	movl	-748(%rbp), %ecx
	cmpl	-740(%rbp), %ecx
	jg	.L91
	addl	$1, -744(%rbp)
.L89:
	movl	-752(%rbp), %ecx
	cmpl	-744(%rbp), %ecx
	jg	.L92
	jmp	.L88
.L105:
	nop
.L88:
	addl	$1, -780(%rbp)
.L86:
	cmpl	$7, -780(%rbp)
	jle	.L93
	addl	$1, -784(%rbp)
.L85:
	cmpl	$7, -784(%rbp)
	jle	.L94
	movl	$0, -736(%rbp)
	jmp	.L95
.L104:
	movl	-736(%rbp), %eax
	leal	0(,%rax,8), %edx
	movl	-792(%rbp), %eax
	movl	%eax, -732(%rbp)
	movl	-788(%rbp), %eax
	movl	%eax, -728(%rbp)
	movq	-96(%rbp), %rax
	movq	%rax, -32(%rbp)
	movq	-88(%rbp), %rax
	movq	%rax, -24(%rbp)
	movl	%edx, -724(%rbp)
	movl	-732(%rbp), %edx
	movslq	%edx, %rax
	subq	$1, %rax
	movq	%rax, -16(%rbp)
	movl	-728(%rbp), %eax
	movslq	%eax, %rcx
	subq	$1, %rcx
	movq	%rcx, -8(%rbp)
	movl	$0, -720(%rbp)
	jmp	.L96
.L99:
	movl	$0, -716(%rbp)
	jmp	.L97
.L98:
	movl	-724(%rbp), %esi
	movl	-716(%rbp), %ecx
	addl	%esi, %ecx
	addl	$4, %ecx
	movslq	%ecx, %rsi
	movslq	%edx, %rcx
	imulq	%rsi, %rcx
	leaq	0(,%rcx,4), %rsi
	movq	-32(%rbp), %rcx
	leaq	(%rsi,%rcx), %r8
	movl	-724(%rbp), %esi
	movl	-720(%rbp), %ecx
	leal	(%rsi,%rcx), %r10d
	movl	-724(%rbp), %esi
	movl	-720(%rbp), %ecx
	addl	%esi, %ecx
	movslq	%ecx, %rsi
	movslq	%eax, %rcx
	imulq	%rsi, %rcx
	leaq	0(,%rcx,4), %rsi
	movq	-24(%rbp), %rcx
	leaq	(%rsi,%rcx), %rdi
	movl	-724(%rbp), %esi
	movl	-716(%rbp), %ecx
	addl	%esi, %ecx
	leal	4(%rcx), %r9d
	movslq	%r10d, %rcx
	movl	(%r8,%rcx,4), %esi
	movslq	%r9d, %rcx
	movl	%esi, (%rdi,%rcx,4)
	addl	$1, -716(%rbp)
.L97:
	cmpl	$3, -716(%rbp)
	jle	.L98
	addl	$1, -720(%rbp)
.L96:
	cmpl	$3, -720(%rbp)
	jle	.L99
	movl	-724(%rbp), %ecx
	addl	$4, %ecx
	movslq	%ecx, %rsi
	movslq	%edx, %rcx
	imulq	%rsi, %rcx
	leaq	0(,%rcx,4), %rsi
	movq	-32(%rbp), %rcx
	addq	%rcx, %rsi
	movl	-724(%rbp), %ecx
	addl	$4, %ecx
	movslq	%ecx, %rcx
	movl	(%rsi,%rcx,4), %ecx
	movl	%ecx, -712(%rbp)
	movl	-724(%rbp), %ecx
	addl	$4, %ecx
	movslq	%ecx, %rsi
	movslq	%edx, %rcx
	imulq	%rsi, %rcx
	leaq	0(,%rcx,4), %rsi
	movq	-32(%rbp), %rcx
	addq	%rcx, %rsi
	movl	-724(%rbp), %ecx
	addl	$5, %ecx
	movslq	%ecx, %rcx
	movl	(%rsi,%rcx,4), %ecx
	movl	%ecx, -708(%rbp)
	movl	-724(%rbp), %ecx
	addl	$4, %ecx
	movslq	%ecx, %rsi
	movslq	%edx, %rcx
	imulq	%rsi, %rcx
	leaq	0(,%rcx,4), %rsi
	movq	-32(%rbp), %rcx
	addq	%rcx, %rsi
	movl	-724(%rbp), %ecx
	addl	$6, %ecx
	movslq	%ecx, %rcx
	movl	(%rsi,%rcx,4), %ecx
	movl	%ecx, -704(%rbp)
	movl	-724(%rbp), %ecx
	addl	$4, %ecx
	movslq	%ecx, %rsi
	movslq	%edx, %rcx
	imulq	%rsi, %rcx
	leaq	0(,%rcx,4), %rsi
	movq	-32(%rbp), %rcx
	addq	%rcx, %rsi
	movl	-724(%rbp), %ecx
	addl	$7, %ecx
	movslq	%ecx, %rcx
	movl	(%rsi,%rcx,4), %ecx
	movl	%ecx, -700(%rbp)
	movl	-724(%rbp), %ecx
	addl	$5, %ecx
	movslq	%ecx, %rsi
	movslq	%edx, %rcx
	imulq	%rsi, %rcx
	leaq	0(,%rcx,4), %rsi
	movq	-32(%rbp), %rcx
	addq	%rcx, %rsi
	movl	-724(%rbp), %ecx
	addl	$4, %ecx
	movslq	%ecx, %rcx
	movl	(%rsi,%rcx,4), %ecx
	movl	%ecx, -696(%rbp)
	movl	-724(%rbp), %ecx
	addl	$5, %ecx
	movslq	%ecx, %rsi
	movslq	%edx, %rcx
	imulq	%rsi, %rcx
	leaq	0(,%rcx,4), %rsi
	movq	-32(%rbp), %rcx
	addq	%rcx, %rsi
	movl	-724(%rbp), %ecx
	addl	$5, %ecx
	movslq	%ecx, %rcx
	movl	(%rsi,%rcx,4), %ecx
	movl	%ecx, -692(%rbp)
	movl	-724(%rbp), %ecx
	addl	$5, %ecx
	movslq	%ecx, %rsi
	movslq	%edx, %rcx
	imulq	%rsi, %rcx
	leaq	0(,%rcx,4), %rsi
	movq	-32(%rbp), %rcx
	addq	%rcx, %rsi
	movl	-724(%rbp), %ecx
	addl	$6, %ecx
	movslq	%ecx, %rcx
	movl	(%rsi,%rcx,4), %ecx
	movl	%ecx, -688(%rbp)
	movl	-724(%rbp), %ecx
	addl	$5, %ecx
	movslq	%ecx, %rsi
	movslq	%edx, %rcx
	imulq	%rsi, %rcx
	leaq	0(,%rcx,4), %rsi
	movq	-32(%rbp), %rcx
	addq	%rcx, %rsi
	movl	-724(%rbp), %ecx
	addl	$7, %ecx
	movslq	%ecx, %rcx
	movl	(%rsi,%rcx,4), %ecx
	movl	%ecx, -684(%rbp)
	movl	-724(%rbp), %ecx
	addl	$6, %ecx
	movslq	%ecx, %rsi
	movslq	%edx, %rcx
	imulq	%rsi, %rcx
	leaq	0(,%rcx,4), %rsi
	movq	-32(%rbp), %rcx
	addq	%rcx, %rsi
	movl	-724(%rbp), %ecx
	addl	$4, %ecx
	movslq	%ecx, %rcx
	movl	(%rsi,%rcx,4), %ecx
	movl	%ecx, -680(%rbp)
	movl	-724(%rbp), %ecx
	addl	$6, %ecx
	movslq	%ecx, %rsi
	movslq	%edx, %rcx
	imulq	%rsi, %rcx
	leaq	0(,%rcx,4), %rsi
	movq	-32(%rbp), %rcx
	addq	%rcx, %rsi
	movl	-724(%rbp), %ecx
	addl	$5, %ecx
	movslq	%ecx, %rcx
	movl	(%rsi,%rcx,4), %ecx
	movl	%ecx, -676(%rbp)
	movl	-724(%rbp), %ecx
	addl	$6, %ecx
	movslq	%ecx, %rsi
	movslq	%edx, %rcx
	imulq	%rsi, %rcx
	leaq	0(,%rcx,4), %rsi
	movq	-32(%rbp), %rcx
	addq	%rcx, %rsi
	movl	-724(%rbp), %ecx
	addl	$6, %ecx
	movslq	%ecx, %rcx
	movl	(%rsi,%rcx,4), %ecx
	movl	%ecx, -672(%rbp)
	movl	-724(%rbp), %ecx
	addl	$6, %ecx
	movslq	%ecx, %rsi
	movslq	%edx, %rcx
	imulq	%rsi, %rcx
	leaq	0(,%rcx,4), %rsi
	movq	-32(%rbp), %rcx
	addq	%rcx, %rsi
	movl	-724(%rbp), %ecx
	addl	$7, %ecx
	movslq	%ecx, %rcx
	movl	(%rsi,%rcx,4), %ecx
	movl	%ecx, -668(%rbp)
	movl	-724(%rbp), %ecx
	addl	$4, %ecx
	movslq	%ecx, %rsi
	movslq	%eax, %rcx
	imulq	%rsi, %rcx
	leaq	0(,%rcx,4), %rsi
	movq	-24(%rbp), %rcx
	leaq	(%rsi,%rcx), %rdi
	movl	-724(%rbp), %ecx
	addl	$4, %ecx
	movslq	%ecx, %rcx
	movl	-712(%rbp), %esi
	movl	%esi, (%rdi,%rcx,4)
	movl	-724(%rbp), %ecx
	addl	$5, %ecx
	movslq	%ecx, %rsi
	movslq	%eax, %rcx
	imulq	%rsi, %rcx
	leaq	0(,%rcx,4), %rsi
	movq	-24(%rbp), %rcx
	leaq	(%rsi,%rcx), %rdi
	movl	-724(%rbp), %ecx
	addl	$4, %ecx
	movslq	%ecx, %rcx
	movl	-708(%rbp), %esi
	movl	%esi, (%rdi,%rcx,4)
	movl	-724(%rbp), %ecx
	addl	$6, %ecx
	movslq	%ecx, %rsi
	movslq	%eax, %rcx
	imulq	%rsi, %rcx
	leaq	0(,%rcx,4), %rsi
	movq	-24(%rbp), %rcx
	leaq	(%rsi,%rcx), %rdi
	movl	-724(%rbp), %ecx
	addl	$4, %ecx
	movslq	%ecx, %rcx
	movl	-704(%rbp), %esi
	movl	%esi, (%rdi,%rcx,4)
	movl	-724(%rbp), %ecx
	addl	$4, %ecx
	movslq	%ecx, %rsi
	movslq	%eax, %rcx
	imulq	%rsi, %rcx
	leaq	0(,%rcx,4), %rsi
	movq	-24(%rbp), %rcx
	leaq	(%rsi,%rcx), %rdi
	movl	-724(%rbp), %ecx
	addl	$5, %ecx
	movslq	%ecx, %rcx
	movl	-696(%rbp), %esi
	movl	%esi, (%rdi,%rcx,4)
	movl	-724(%rbp), %ecx
	addl	$5, %ecx
	movslq	%ecx, %rsi
	movslq	%eax, %rcx
	imulq	%rsi, %rcx
	leaq	0(,%rcx,4), %rsi
	movq	-24(%rbp), %rcx
	leaq	(%rsi,%rcx), %rdi
	movl	-724(%rbp), %ecx
	addl	$5, %ecx
	movslq	%ecx, %rcx
	movl	-692(%rbp), %esi
	movl	%esi, (%rdi,%rcx,4)
	movl	-724(%rbp), %ecx
	addl	$6, %ecx
	movslq	%ecx, %rsi
	movslq	%eax, %rcx
	imulq	%rsi, %rcx
	leaq	0(,%rcx,4), %rsi
	movq	-24(%rbp), %rcx
	leaq	(%rsi,%rcx), %rdi
	movl	-724(%rbp), %ecx
	addl	$5, %ecx
	movslq	%ecx, %rcx
	movl	-688(%rbp), %esi
	movl	%esi, (%rdi,%rcx,4)
	movl	-724(%rbp), %ecx
	addl	$4, %ecx
	movslq	%ecx, %rsi
	movslq	%eax, %rcx
	imulq	%rsi, %rcx
	leaq	0(,%rcx,4), %rsi
	movq	-24(%rbp), %rcx
	leaq	(%rsi,%rcx), %rdi
	movl	-724(%rbp), %ecx
	addl	$6, %ecx
	movslq	%ecx, %rcx
	movl	-680(%rbp), %esi
	movl	%esi, (%rdi,%rcx,4)
	movl	-724(%rbp), %ecx
	addl	$5, %ecx
	movslq	%ecx, %rsi
	movslq	%eax, %rcx
	imulq	%rsi, %rcx
	leaq	0(,%rcx,4), %rsi
	movq	-24(%rbp), %rcx
	leaq	(%rsi,%rcx), %rdi
	movl	-724(%rbp), %ecx
	addl	$6, %ecx
	movslq	%ecx, %rcx
	movl	-676(%rbp), %esi
	movl	%esi, (%rdi,%rcx,4)
	movl	-724(%rbp), %ecx
	addl	$6, %ecx
	movslq	%ecx, %rsi
	movslq	%eax, %rcx
	imulq	%rsi, %rcx
	leaq	0(,%rcx,4), %rsi
	movq	-24(%rbp), %rcx
	leaq	(%rsi,%rcx), %rdi
	movl	-724(%rbp), %ecx
	addl	$6, %ecx
	movslq	%ecx, %rcx
	movl	-672(%rbp), %esi
	movl	%esi, (%rdi,%rcx,4)
	movl	-724(%rbp), %ecx
	addl	$7, %ecx
	movslq	%ecx, %rsi
	movslq	%edx, %rcx
	imulq	%rsi, %rcx
	leaq	0(,%rcx,4), %rsi
	movq	-32(%rbp), %rcx
	addq	%rcx, %rsi
	movl	-724(%rbp), %ecx
	addl	$4, %ecx
	movslq	%ecx, %rcx
	movl	(%rsi,%rcx,4), %ecx
	movl	%ecx, -712(%rbp)
	movl	-724(%rbp), %ecx
	addl	$7, %ecx
	movslq	%ecx, %rsi
	movslq	%edx, %rcx
	imulq	%rsi, %rcx
	leaq	0(,%rcx,4), %rsi
	movq	-32(%rbp), %rcx
	addq	%rcx, %rsi
	movl	-724(%rbp), %ecx
	addl	$5, %ecx
	movslq	%ecx, %rcx
	movl	(%rsi,%rcx,4), %ecx
	movl	%ecx, -708(%rbp)
	movl	-724(%rbp), %ecx
	addl	$7, %ecx
	movslq	%ecx, %rsi
	movslq	%edx, %rcx
	imulq	%rsi, %rcx
	leaq	0(,%rcx,4), %rsi
	movq	-32(%rbp), %rcx
	addq	%rcx, %rsi
	movl	-724(%rbp), %ecx
	addl	$6, %ecx
	movslq	%ecx, %rcx
	movl	(%rsi,%rcx,4), %ecx
	movl	%ecx, -704(%rbp)
	movl	-724(%rbp), %ecx
	addl	$7, %ecx
	movslq	%ecx, %rsi
	movslq	%edx, %rcx
	imulq	%rsi, %rcx
	leaq	0(,%rcx,4), %rsi
	movq	-32(%rbp), %rcx
	addq	%rcx, %rsi
	movl	-724(%rbp), %ecx
	addl	$7, %ecx
	movslq	%ecx, %rcx
	movl	(%rsi,%rcx,4), %ecx
	movl	%ecx, -696(%rbp)
	movl	-724(%rbp), %ecx
	addl	$7, %ecx
	movslq	%ecx, %rsi
	movslq	%eax, %rcx
	imulq	%rsi, %rcx
	leaq	0(,%rcx,4), %rsi
	movq	-24(%rbp), %rcx
	leaq	(%rsi,%rcx), %rdi
	movl	-724(%rbp), %ecx
	addl	$4, %ecx
	movslq	%ecx, %rcx
	movl	-700(%rbp), %esi
	movl	%esi, (%rdi,%rcx,4)
	movl	-724(%rbp), %ecx
	addl	$7, %ecx
	movslq	%ecx, %rsi
	movslq	%eax, %rcx
	imulq	%rsi, %rcx
	leaq	0(,%rcx,4), %rsi
	movq	-24(%rbp), %rcx
	leaq	(%rsi,%rcx), %rdi
	movl	-724(%rbp), %ecx
	addl	$5, %ecx
	movslq	%ecx, %rcx
	movl	-684(%rbp), %esi
	movl	%esi, (%rdi,%rcx,4)
	movl	-724(%rbp), %ecx
	addl	$7, %ecx
	movslq	%ecx, %rsi
	movslq	%eax, %rcx
	imulq	%rsi, %rcx
	leaq	0(,%rcx,4), %rsi
	movq	-24(%rbp), %rcx
	leaq	(%rsi,%rcx), %rdi
	movl	-724(%rbp), %ecx
	addl	$6, %ecx
	movslq	%ecx, %rcx
	movl	-668(%rbp), %esi
	movl	%esi, (%rdi,%rcx,4)
	movl	-724(%rbp), %ecx
	addl	$4, %ecx
	movslq	%ecx, %rsi
	movslq	%eax, %rcx
	imulq	%rsi, %rcx
	leaq	0(,%rcx,4), %rsi
	movq	-24(%rbp), %rcx
	leaq	(%rsi,%rcx), %rdi
	movl	-724(%rbp), %ecx
	addl	$7, %ecx
	movslq	%ecx, %rcx
	movl	-712(%rbp), %esi
	movl	%esi, (%rdi,%rcx,4)
	movl	-724(%rbp), %ecx
	addl	$5, %ecx
	movslq	%ecx, %rsi
	movslq	%eax, %rcx
	imulq	%rsi, %rcx
	leaq	0(,%rcx,4), %rsi
	movq	-24(%rbp), %rcx
	leaq	(%rsi,%rcx), %rdi
	movl	-724(%rbp), %ecx
	addl	$7, %ecx
	movslq	%ecx, %rcx
	movl	-708(%rbp), %esi
	movl	%esi, (%rdi,%rcx,4)
	movl	-724(%rbp), %ecx
	addl	$6, %ecx
	movslq	%ecx, %rsi
	movslq	%eax, %rcx
	imulq	%rsi, %rcx
	leaq	0(,%rcx,4), %rsi
	movq	-24(%rbp), %rcx
	leaq	(%rsi,%rcx), %rdi
	movl	-724(%rbp), %ecx
	addl	$7, %ecx
	movslq	%ecx, %rcx
	movl	-704(%rbp), %esi
	movl	%esi, (%rdi,%rcx,4)
	movl	-724(%rbp), %ecx
	addl	$7, %ecx
	movslq	%ecx, %rsi
	movslq	%eax, %rcx
	imulq	%rsi, %rcx
	leaq	0(,%rcx,4), %rsi
	movq	-24(%rbp), %rcx
	leaq	(%rsi,%rcx), %rdi
	movl	-724(%rbp), %ecx
	addl	$7, %ecx
	movslq	%ecx, %rcx
	movl	-696(%rbp), %esi
	movl	%esi, (%rdi,%rcx,4)
	movl	$0, -664(%rbp)
	jmp	.L100
.L103:
	movl	$0, -660(%rbp)
	jmp	.L101
.L102:
	movl	-724(%rbp), %esi
	movl	-660(%rbp), %ecx
	addl	%esi, %ecx
	movslq	%ecx, %rsi
	movslq	%edx, %rcx
	imulq	%rsi, %rcx
	leaq	0(,%rcx,4), %rsi
	movq	-32(%rbp), %rcx
	leaq	(%rsi,%rcx), %r8
	movl	-724(%rbp), %esi
	movl	-664(%rbp), %ecx
	addl	%esi, %ecx
	leal	4(%rcx), %r10d
	movl	-724(%rbp), %esi
	movl	-664(%rbp), %ecx
	addl	%esi, %ecx
	addl	$4, %ecx
	movslq	%ecx, %rsi
	movslq	%eax, %rcx
	imulq	%rsi, %rcx
	leaq	0(,%rcx,4), %rsi
	movq	-24(%rbp), %rcx
	leaq	(%rsi,%rcx), %rdi
	movl	-724(%rbp), %esi
	movl	-660(%rbp), %ecx
	leal	(%rsi,%rcx), %r9d
	movslq	%r10d, %rcx
	movl	(%r8,%rcx,4), %esi
	movslq	%r9d, %rcx
	movl	%esi, (%rdi,%rcx,4)
	addl	$1, -660(%rbp)
.L101:
	cmpl	$3, -660(%rbp)
	jle	.L102
	addl	$1, -664(%rbp)
.L100:
	cmpl	$3, -664(%rbp)
	jle	.L103
	movl	-724(%rbp), %ecx
	movslq	%ecx, %rsi
	movslq	%edx, %rcx
	imulq	%rsi, %rcx
	leaq	0(,%rcx,4), %rsi
	movq	-32(%rbp), %rcx
	addq	%rcx, %rsi
	movl	-724(%rbp), %ecx
	movslq	%ecx, %rcx
	movl	(%rsi,%rcx,4), %ecx
	movl	%ecx, -712(%rbp)
	movl	-724(%rbp), %ecx
	movslq	%ecx, %rsi
	movslq	%edx, %rcx
	imulq	%rsi, %rcx
	leaq	0(,%rcx,4), %rsi
	movq	-32(%rbp), %rcx
	addq	%rcx, %rsi
	movl	-724(%rbp), %ecx
	addl	$1, %ecx
	movslq	%ecx, %rcx
	movl	(%rsi,%rcx,4), %ecx
	movl	%ecx, -708(%rbp)
	movl	-724(%rbp), %ecx
	movslq	%ecx, %rsi
	movslq	%edx, %rcx
	imulq	%rsi, %rcx
	leaq	0(,%rcx,4), %rsi
	movq	-32(%rbp), %rcx
	addq	%rcx, %rsi
	movl	-724(%rbp), %ecx
	addl	$2, %ecx
	movslq	%ecx, %rcx
	movl	(%rsi,%rcx,4), %ecx
	movl	%ecx, -704(%rbp)
	movl	-724(%rbp), %ecx
	movslq	%ecx, %rsi
	movslq	%edx, %rcx
	imulq	%rsi, %rcx
	leaq	0(,%rcx,4), %rsi
	movq	-32(%rbp), %rcx
	addq	%rcx, %rsi
	movl	-724(%rbp), %ecx
	addl	$3, %ecx
	movslq	%ecx, %rcx
	movl	(%rsi,%rcx,4), %ecx
	movl	%ecx, -700(%rbp)
	movl	-724(%rbp), %ecx
	addl	$1, %ecx
	movslq	%ecx, %rsi
	movslq	%edx, %rcx
	imulq	%rsi, %rcx
	leaq	0(,%rcx,4), %rsi
	movq	-32(%rbp), %rcx
	addq	%rcx, %rsi
	movl	-724(%rbp), %ecx
	movslq	%ecx, %rcx
	movl	(%rsi,%rcx,4), %ecx
	movl	%ecx, -696(%rbp)
	movl	-724(%rbp), %ecx
	addl	$1, %ecx
	movslq	%ecx, %rsi
	movslq	%edx, %rcx
	imulq	%rsi, %rcx
	leaq	0(,%rcx,4), %rsi
	movq	-32(%rbp), %rcx
	addq	%rcx, %rsi
	movl	-724(%rbp), %ecx
	addl	$1, %ecx
	movslq	%ecx, %rcx
	movl	(%rsi,%rcx,4), %ecx
	movl	%ecx, -692(%rbp)
	movl	-724(%rbp), %ecx
	addl	$1, %ecx
	movslq	%ecx, %rsi
	movslq	%edx, %rcx
	imulq	%rsi, %rcx
	leaq	0(,%rcx,4), %rsi
	movq	-32(%rbp), %rcx
	addq	%rcx, %rsi
	movl	-724(%rbp), %ecx
	addl	$2, %ecx
	movslq	%ecx, %rcx
	movl	(%rsi,%rcx,4), %ecx
	movl	%ecx, -688(%rbp)
	movl	-724(%rbp), %ecx
	addl	$1, %ecx
	movslq	%ecx, %rsi
	movslq	%edx, %rcx
	imulq	%rsi, %rcx
	leaq	0(,%rcx,4), %rsi
	movq	-32(%rbp), %rcx
	addq	%rcx, %rsi
	movl	-724(%rbp), %ecx
	addl	$3, %ecx
	movslq	%ecx, %rcx
	movl	(%rsi,%rcx,4), %ecx
	movl	%ecx, -684(%rbp)
	movl	-724(%rbp), %ecx
	addl	$2, %ecx
	movslq	%ecx, %rsi
	movslq	%edx, %rcx
	imulq	%rsi, %rcx
	leaq	0(,%rcx,4), %rsi
	movq	-32(%rbp), %rcx
	addq	%rcx, %rsi
	movl	-724(%rbp), %ecx
	movslq	%ecx, %rcx
	movl	(%rsi,%rcx,4), %ecx
	movl	%ecx, -680(%rbp)
	movl	-724(%rbp), %ecx
	addl	$2, %ecx
	movslq	%ecx, %rsi
	movslq	%edx, %rcx
	imulq	%rsi, %rcx
	leaq	0(,%rcx,4), %rsi
	movq	-32(%rbp), %rcx
	addq	%rcx, %rsi
	movl	-724(%rbp), %ecx
	addl	$1, %ecx
	movslq	%ecx, %rcx
	movl	(%rsi,%rcx,4), %ecx
	movl	%ecx, -676(%rbp)
	movl	-724(%rbp), %ecx
	addl	$2, %ecx
	movslq	%ecx, %rsi
	movslq	%edx, %rcx
	imulq	%rsi, %rcx
	leaq	0(,%rcx,4), %rsi
	movq	-32(%rbp), %rcx
	addq	%rcx, %rsi
	movl	-724(%rbp), %ecx
	addl	$2, %ecx
	movslq	%ecx, %rcx
	movl	(%rsi,%rcx,4), %ecx
	movl	%ecx, -672(%rbp)
	movl	-724(%rbp), %ecx
	addl	$2, %ecx
	movslq	%ecx, %rsi
	movslq	%edx, %rcx
	imulq	%rsi, %rcx
	leaq	0(,%rcx,4), %rsi
	movq	-32(%rbp), %rcx
	addq	%rcx, %rsi
	movl	-724(%rbp), %ecx
	addl	$3, %ecx
	movslq	%ecx, %rcx
	movl	(%rsi,%rcx,4), %ecx
	movl	%ecx, -668(%rbp)
	movl	-724(%rbp), %ecx
	movslq	%ecx, %rsi
	movslq	%eax, %rcx
	imulq	%rsi, %rcx
	leaq	0(,%rcx,4), %rsi
	movq	-24(%rbp), %rcx
	leaq	(%rsi,%rcx), %rdi
	movl	-724(%rbp), %ecx
	movslq	%ecx, %rcx
	movl	-712(%rbp), %esi
	movl	%esi, (%rdi,%rcx,4)
	movl	-724(%rbp), %ecx
	addl	$1, %ecx
	movslq	%ecx, %rsi
	movslq	%eax, %rcx
	imulq	%rsi, %rcx
	leaq	0(,%rcx,4), %rsi
	movq	-24(%rbp), %rcx
	leaq	(%rsi,%rcx), %rdi
	movl	-724(%rbp), %ecx
	movslq	%ecx, %rcx
	movl	-708(%rbp), %esi
	movl	%esi, (%rdi,%rcx,4)
	movl	-724(%rbp), %ecx
	addl	$2, %ecx
	movslq	%ecx, %rsi
	movslq	%eax, %rcx
	imulq	%rsi, %rcx
	leaq	0(,%rcx,4), %rsi
	movq	-24(%rbp), %rcx
	leaq	(%rsi,%rcx), %rdi
	movl	-724(%rbp), %ecx
	movslq	%ecx, %rcx
	movl	-704(%rbp), %esi
	movl	%esi, (%rdi,%rcx,4)
	movl	-724(%rbp), %ecx
	movslq	%ecx, %rsi
	movslq	%eax, %rcx
	imulq	%rsi, %rcx
	leaq	0(,%rcx,4), %rsi
	movq	-24(%rbp), %rcx
	leaq	(%rsi,%rcx), %rdi
	movl	-724(%rbp), %ecx
	addl	$1, %ecx
	movslq	%ecx, %rcx
	movl	-696(%rbp), %esi
	movl	%esi, (%rdi,%rcx,4)
	movl	-724(%rbp), %ecx
	addl	$1, %ecx
	movslq	%ecx, %rsi
	movslq	%eax, %rcx
	imulq	%rsi, %rcx
	leaq	0(,%rcx,4), %rsi
	movq	-24(%rbp), %rcx
	leaq	(%rsi,%rcx), %rdi
	movl	-724(%rbp), %ecx
	addl	$1, %ecx
	movslq	%ecx, %rcx
	movl	-692(%rbp), %esi
	movl	%esi, (%rdi,%rcx,4)
	movl	-724(%rbp), %ecx
	addl	$2, %ecx
	movslq	%ecx, %rsi
	movslq	%eax, %rcx
	imulq	%rsi, %rcx
	leaq	0(,%rcx,4), %rsi
	movq	-24(%rbp), %rcx
	leaq	(%rsi,%rcx), %rdi
	movl	-724(%rbp), %ecx
	addl	$1, %ecx
	movslq	%ecx, %rcx
	movl	-688(%rbp), %esi
	movl	%esi, (%rdi,%rcx,4)
	movl	-724(%rbp), %ecx
	movslq	%ecx, %rsi
	movslq	%eax, %rcx
	imulq	%rsi, %rcx
	leaq	0(,%rcx,4), %rsi
	movq	-24(%rbp), %rcx
	leaq	(%rsi,%rcx), %rdi
	movl	-724(%rbp), %ecx
	addl	$2, %ecx
	movslq	%ecx, %rcx
	movl	-680(%rbp), %esi
	movl	%esi, (%rdi,%rcx,4)
	movl	-724(%rbp), %ecx
	addl	$1, %ecx
	movslq	%ecx, %rsi
	movslq	%eax, %rcx
	imulq	%rsi, %rcx
	leaq	0(,%rcx,4), %rsi
	movq	-24(%rbp), %rcx
	leaq	(%rsi,%rcx), %rdi
	movl	-724(%rbp), %ecx
	addl	$2, %ecx
	movslq	%ecx, %rcx
	movl	-676(%rbp), %esi
	movl	%esi, (%rdi,%rcx,4)
	movl	-724(%rbp), %ecx
	addl	$2, %ecx
	movslq	%ecx, %rsi
	movslq	%eax, %rcx
	imulq	%rsi, %rcx
	leaq	0(,%rcx,4), %rsi
	movq	-24(%rbp), %rcx
	leaq	(%rsi,%rcx), %rdi
	movl	-724(%rbp), %ecx
	addl	$2, %ecx
	movslq	%ecx, %rcx
	movl	-672(%rbp), %esi
	movl	%esi, (%rdi,%rcx,4)
	movl	-724(%rbp), %ecx
	addl	$3, %ecx
	movslq	%ecx, %rsi
	movslq	%edx, %rcx
	imulq	%rsi, %rcx
	leaq	0(,%rcx,4), %rsi
	movq	-32(%rbp), %rcx
	addq	%rcx, %rsi
	movl	-724(%rbp), %ecx
	movslq	%ecx, %rcx
	movl	(%rsi,%rcx,4), %ecx
	movl	%ecx, -712(%rbp)
	movl	-724(%rbp), %ecx
	addl	$3, %ecx
	movslq	%ecx, %rsi
	movslq	%edx, %rcx
	imulq	%rsi, %rcx
	leaq	0(,%rcx,4), %rsi
	movq	-32(%rbp), %rcx
	addq	%rcx, %rsi
	movl	-724(%rbp), %ecx
	addl	$1, %ecx
	movslq	%ecx, %rcx
	movl	(%rsi,%rcx,4), %ecx
	movl	%ecx, -708(%rbp)
	movl	-724(%rbp), %ecx
	addl	$3, %ecx
	movslq	%ecx, %rsi
	movslq	%edx, %rcx
	imulq	%rsi, %rcx
	leaq	0(,%rcx,4), %rsi
	movq	-32(%rbp), %rcx
	addq	%rcx, %rsi
	movl	-724(%rbp), %ecx
	addl	$2, %ecx
	movslq	%ecx, %rcx
	movl	(%rsi,%rcx,4), %ecx
	movl	%ecx, -704(%rbp)
	movl	-724(%rbp), %ecx
	addl	$3, %ecx
	movslq	%ecx, %rcx
	movslq	%edx, %rdx
	imulq	%rcx, %rdx
	leaq	0(,%rdx,4), %rcx
	movq	-32(%rbp), %rdx
	addq	%rdx, %rcx
	movl	-724(%rbp), %edx
	addl	$3, %edx
	movslq	%edx, %rdx
	movl	(%rcx,%rdx,4), %edx
	movl	%edx, -696(%rbp)
	movl	-724(%rbp), %edx
	addl	$3, %edx
	movslq	%edx, %rcx
	movslq	%eax, %rdx
	imulq	%rcx, %rdx
	leaq	0(,%rdx,4), %rcx
	movq	-24(%rbp), %rdx
	leaq	(%rcx,%rdx), %rsi
	movl	-724(%rbp), %edx
	movslq	%edx, %rdx
	movl	-700(%rbp), %ecx
	movl	%ecx, (%rsi,%rdx,4)
	movl	-724(%rbp), %edx
	addl	$3, %edx
	movslq	%edx, %rcx
	movslq	%eax, %rdx
	imulq	%rcx, %rdx
	leaq	0(,%rdx,4), %rcx
	movq	-24(%rbp), %rdx
	leaq	(%rcx,%rdx), %rsi
	movl	-724(%rbp), %edx
	addl	$1, %edx
	movslq	%edx, %rdx
	movl	-684(%rbp), %ecx
	movl	%ecx, (%rsi,%rdx,4)
	movl	-724(%rbp), %edx
	addl	$3, %edx
	movslq	%edx, %rcx
	movslq	%eax, %rdx
	imulq	%rcx, %rdx
	leaq	0(,%rdx,4), %rcx
	movq	-24(%rbp), %rdx
	leaq	(%rcx,%rdx), %rsi
	movl	-724(%rbp), %edx
	addl	$2, %edx
	movslq	%edx, %rdx
	movl	-668(%rbp), %ecx
	movl	%ecx, (%rsi,%rdx,4)
	movl	-724(%rbp), %edx
	movslq	%edx, %rcx
	movslq	%eax, %rdx
	imulq	%rcx, %rdx
	leaq	0(,%rdx,4), %rcx
	movq	-24(%rbp), %rdx
	leaq	(%rcx,%rdx), %rsi
	movl	-724(%rbp), %edx
	addl	$3, %edx
	movslq	%edx, %rdx
	movl	-712(%rbp), %ecx
	movl	%ecx, (%rsi,%rdx,4)
	movl	-724(%rbp), %edx
	addl	$1, %edx
	movslq	%edx, %rcx
	movslq	%eax, %rdx
	imulq	%rcx, %rdx
	leaq	0(,%rdx,4), %rcx
	movq	-24(%rbp), %rdx
	leaq	(%rcx,%rdx), %rsi
	movl	-724(%rbp), %edx
	addl	$3, %edx
	movslq	%edx, %rdx
	movl	-708(%rbp), %ecx
	movl	%ecx, (%rsi,%rdx,4)
	movl	-724(%rbp), %edx
	addl	$2, %edx
	movslq	%edx, %rcx
	movslq	%eax, %rdx
	imulq	%rcx, %rdx
	leaq	0(,%rdx,4), %rcx
	movq	-24(%rbp), %rdx
	leaq	(%rcx,%rdx), %rsi
	movl	-724(%rbp), %edx
	addl	$3, %edx
	movslq	%edx, %rdx
	movl	-704(%rbp), %ecx
	movl	%ecx, (%rsi,%rdx,4)
	movl	-724(%rbp), %edx
	addl	$3, %edx
	movslq	%edx, %rdx
	cltq
	imulq	%rdx, %rax
	leaq	0(,%rax,4), %rdx
	movq	-24(%rbp), %rax
	leaq	(%rdx,%rax), %rcx
	movl	-724(%rbp), %eax
	addl	$3, %eax
	cltq
	movl	-696(%rbp), %edx
	movl	%edx, (%rcx,%rax,4)
	nop
	addl	$1, -736(%rbp)
.L95:
	cmpl	$7, -736(%rbp)
	jle	.L104
	nop
.L2:
	leave
	.cfi_def_cfa 7, 8
	ret
	.cfi_endproc
.LFE5:
	.size	transpose_submit, .-transpose_submit
	.globl	trans_desc
	.data
	.align 16
	.type	trans_desc, @object
	.size	trans_desc, 31
trans_desc:
	.string	"Simple row-wise scan transpose"
	.text
	.globl	trans
	.type	trans, @function
trans:
.LFB6:
	.cfi_startproc
	endbr64
	pushq	%rbp
	.cfi_def_cfa_offset 16
	.cfi_offset 6, -16
	movq	%rsp, %rbp
	.cfi_def_cfa_register 6
	movl	%edi, -36(%rbp)
	movl	%esi, -40(%rbp)
	movq	%rdx, -48(%rbp)
	movq	%rcx, -56(%rbp)
	movl	-36(%rbp), %eax
	movslq	%eax, %rdx
	subq	$1, %rdx
	movq	%rdx, -16(%rbp)
	movl	-40(%rbp), %edx
	movslq	%edx, %rcx
	subq	$1, %rcx
	movq	%rcx, -8(%rbp)
	movl	$0, -28(%rbp)
	jmp	.L107
.L110:
	movl	$0, -24(%rbp)
	jmp	.L108
.L109:
	movl	-28(%rbp), %ecx
	movslq	%ecx, %rsi
	movslq	%eax, %rcx
	imulq	%rsi, %rcx
	leaq	0(,%rcx,4), %rsi
	movq	-48(%rbp), %rcx
	addq	%rcx, %rsi
	movl	-24(%rbp), %ecx
	movslq	%ecx, %rcx
	movl	(%rsi,%rcx,4), %ecx
	movl	%ecx, -20(%rbp)
	movl	-24(%rbp), %ecx
	movslq	%ecx, %rsi
	movslq	%edx, %rcx
	imulq	%rsi, %rcx
	leaq	0(,%rcx,4), %rsi
	movq	-56(%rbp), %rcx
	leaq	(%rsi,%rcx), %rdi
	movl	-28(%rbp), %ecx
	movslq	%ecx, %rcx
	movl	-20(%rbp), %esi
	movl	%esi, (%rdi,%rcx,4)
	addl	$1, -24(%rbp)
.L108:
	movl	-24(%rbp), %ecx
	cmpl	-36(%rbp), %ecx
	jl	.L109
	addl	$1, -28(%rbp)
.L107:
	movl	-28(%rbp), %ecx
	cmpl	-40(%rbp), %ecx
	jl	.L110
	nop
	nop
	popq	%rbp
	.cfi_def_cfa 7, 8
	ret
	.cfi_endproc
.LFE6:
	.size	trans, .-trans
	.globl	show_addr_desc
	.data
	.align 16
	.type	show_addr_desc, @object
	.size	show_addr_desc, 25
show_addr_desc:
	.string	"Just to show the address"
	.text
	.globl	show_addr
	.type	show_addr, @function
show_addr:
.LFB7:
	.cfi_startproc
	endbr64
	pushq	%rbp
	.cfi_def_cfa_offset 16
	.cfi_offset 6, -16
	movq	%rsp, %rbp
	.cfi_def_cfa_register 6
	movl	%edi, -20(%rbp)
	movl	%esi, -24(%rbp)
	movq	%rdx, -32(%rbp)
	movq	%rcx, -40(%rbp)
	movl	-20(%rbp), %eax
	movslq	%eax, %rdx
	subq	$1, %rdx
	movq	%rdx, -16(%rbp)
	movl	-24(%rbp), %edx
	movslq	%edx, %rcx
	subq	$1, %rcx
	movq	%rcx, -8(%rbp)
	movq	-40(%rbp), %rcx
	movl	(%rcx), %esi
	movq	-32(%rbp), %rcx
	movl	%esi, (%rcx)
	movl	-20(%rbp), %ecx
	subl	$1, %ecx
	movslq	%ecx, %rcx
	movslq	%edx, %rdx
	imulq	%rcx, %rdx
	leaq	0(,%rdx,4), %rcx
	movq	-40(%rbp), %rdx
	leaq	(%rcx,%rdx), %rsi
	movl	-24(%rbp), %edx
	leal	-1(%rdx), %r8d
	movl	-24(%rbp), %edx
	subl	$1, %edx
	movslq	%edx, %rdx
	cltq
	imulq	%rdx, %rax
	leaq	0(,%rax,4), %rdx
	movq	-32(%rbp), %rax
	leaq	(%rdx,%rax), %rcx
	movl	-20(%rbp), %eax
	leal	-1(%rax), %edi
	movslq	%r8d, %rax
	movl	(%rsi,%rax,4), %edx
	movslq	%edi, %rax
	movl	%edx, (%rcx,%rax,4)
	nop
	popq	%rbp
	.cfi_def_cfa 7, 8
	ret
	.cfi_endproc
.LFE7:
	.size	show_addr, .-show_addr
	.globl	registerFunctions
	.type	registerFunctions, @function
registerFunctions:
.LFB8:
	.cfi_startproc
	endbr64
	pushq	%rbp
	.cfi_def_cfa_offset 16
	.cfi_offset 6, -16
	movq	%rsp, %rbp
	.cfi_def_cfa_register 6
	leaq	transpose_submit_desc(%rip), %rax
	movq	%rax, %rsi
	leaq	transpose_submit(%rip), %rax
	movq	%rax, %rdi
	call	registerTransFunction@PLT
	leaq	trans_desc(%rip), %rax
	movq	%rax, %rsi
	leaq	trans(%rip), %rax
	movq	%rax, %rdi
	call	registerTransFunction@PLT
	leaq	show_addr_desc(%rip), %rax
	movq	%rax, %rsi
	leaq	show_addr(%rip), %rax
	movq	%rax, %rdi
	call	registerTransFunction@PLT
	nop
	popq	%rbp
	.cfi_def_cfa 7, 8
	ret
	.cfi_endproc
.LFE8:
	.size	registerFunctions, .-registerFunctions
	.globl	is_transpose
	.type	is_transpose, @function
is_transpose:
.LFB9:
	.cfi_startproc
	endbr64
	pushq	%rbp
	.cfi_def_cfa_offset 16
	.cfi_offset 6, -16
	movq	%rsp, %rbp
	.cfi_def_cfa_register 6
	movl	%edi, -36(%rbp)
	movl	%esi, -40(%rbp)
	movq	%rdx, -48(%rbp)
	movq	%rcx, -56(%rbp)
	movl	-36(%rbp), %eax
	movslq	%eax, %rdx
	subq	$1, %rdx
	movq	%rdx, -16(%rbp)
	movl	-40(%rbp), %edx
	movslq	%edx, %rcx
	subq	$1, %rcx
	movq	%rcx, -8(%rbp)
	movl	$0, -24(%rbp)
	jmp	.L114
.L119:
	movl	$0, -20(%rbp)
	jmp	.L115
.L118:
	movl	-24(%rbp), %ecx
	movslq	%ecx, %rsi
	movslq	%eax, %rcx
	imulq	%rsi, %rcx
	leaq	0(,%rcx,4), %rsi
	movq	-48(%rbp), %rcx
	addq	%rcx, %rsi
	movl	-20(%rbp), %ecx
	movslq	%ecx, %rcx
	movl	(%rsi,%rcx,4), %edi
	movl	-20(%rbp), %ecx
	movslq	%ecx, %rsi
	movslq	%edx, %rcx
	imulq	%rsi, %rcx
	leaq	0(,%rcx,4), %rsi
	movq	-56(%rbp), %rcx
	addq	%rcx, %rsi
	movl	-24(%rbp), %ecx
	movslq	%ecx, %rcx
	movl	(%rsi,%rcx,4), %ecx
	cmpl	%ecx, %edi
	je	.L116
	movl	$0, %eax
	jmp	.L117
.L116:
	addl	$1, -20(%rbp)
.L115:
	movl	-20(%rbp), %ecx
	cmpl	-36(%rbp), %ecx
	jl	.L118
	addl	$1, -24(%rbp)
.L114:
	movl	-24(%rbp), %ecx
	cmpl	-40(%rbp), %ecx
	jl	.L119
	movl	$1, %eax
.L117:
	popq	%rbp
	.cfi_def_cfa 7, 8
	ret
	.cfi_endproc
.LFE9:
	.size	is_transpose, .-is_transpose
	.ident	"GCC: (Ubuntu 13.3.0-6ubuntu2~24.04) 13.3.0"
	.section	.note.GNU-stack,"",@progbits
	.section	.note.gnu.property,"a"
	.align 8
	.long	1f - 0f
	.long	4f - 1f
	.long	5
0:
	.string	"GNU"
1:
	.align 8
	.long	0xc0000002
	.long	3f - 2f
2:
	.long	0x3
3:
	.align 8
4:
